
rtarget:     file format elf64-x86-64


Disassembly of section .init:

0000000000400bb0 <_init>:
  400bb0:	48 83 ec 08          	sub    $0x8,%rsp
  400bb4:	48 8b 05 3d 44 20 00 	mov    0x20443d(%rip),%rax        # 604ff8 <__gmon_start__>
  400bbb:	48 85 c0             	test   %rax,%rax
  400bbe:	74 02                	je     400bc2 <_init+0x12>
  400bc0:	ff d0                	callq  *%rax
  400bc2:	48 83 c4 08          	add    $0x8,%rsp
  400bc6:	c3                   	retq   

Disassembly of section .plt:

0000000000400bd0 <.plt>:
  400bd0:	ff 35 32 44 20 00    	pushq  0x204432(%rip)        # 605008 <_GLOBAL_OFFSET_TABLE_+0x8>
  400bd6:	ff 25 34 44 20 00    	jmpq   *0x204434(%rip)        # 605010 <_GLOBAL_OFFSET_TABLE_+0x10>
  400bdc:	0f 1f 40 00          	nopl   0x0(%rax)

0000000000400be0 <strcasecmp@plt>:
  400be0:	ff 25 32 44 20 00    	jmpq   *0x204432(%rip)        # 605018 <strcasecmp@GLIBC_2.2.5>
  400be6:	68 00 00 00 00       	pushq  $0x0
  400beb:	e9 e0 ff ff ff       	jmpq   400bd0 <.plt>

0000000000400bf0 <__errno_location@plt>:
  400bf0:	ff 25 2a 44 20 00    	jmpq   *0x20442a(%rip)        # 605020 <__errno_location@GLIBC_2.2.5>
  400bf6:	68 01 00 00 00       	pushq  $0x1
  400bfb:	e9 d0 ff ff ff       	jmpq   400bd0 <.plt>

0000000000400c00 <srandom@plt>:
  400c00:	ff 25 22 44 20 00    	jmpq   *0x204422(%rip)        # 605028 <srandom@GLIBC_2.2.5>
  400c06:	68 02 00 00 00       	pushq  $0x2
  400c0b:	e9 c0 ff ff ff       	jmpq   400bd0 <.plt>

0000000000400c10 <strncmp@plt>:
  400c10:	ff 25 1a 44 20 00    	jmpq   *0x20441a(%rip)        # 605030 <strncmp@GLIBC_2.2.5>
  400c16:	68 03 00 00 00       	pushq  $0x3
  400c1b:	e9 b0 ff ff ff       	jmpq   400bd0 <.plt>

0000000000400c20 <strcpy@plt>:
  400c20:	ff 25 12 44 20 00    	jmpq   *0x204412(%rip)        # 605038 <strcpy@GLIBC_2.2.5>
  400c26:	68 04 00 00 00       	pushq  $0x4
  400c2b:	e9 a0 ff ff ff       	jmpq   400bd0 <.plt>

0000000000400c30 <puts@plt>:
  400c30:	ff 25 0a 44 20 00    	jmpq   *0x20440a(%rip)        # 605040 <puts@GLIBC_2.2.5>
  400c36:	68 05 00 00 00       	pushq  $0x5
  400c3b:	e9 90 ff ff ff       	jmpq   400bd0 <.plt>

0000000000400c40 <write@plt>:
  400c40:	ff 25 02 44 20 00    	jmpq   *0x204402(%rip)        # 605048 <write@GLIBC_2.2.5>
  400c46:	68 06 00 00 00       	pushq  $0x6
  400c4b:	e9 80 ff ff ff       	jmpq   400bd0 <.plt>

0000000000400c50 <mmap@plt>:
  400c50:	ff 25 fa 43 20 00    	jmpq   *0x2043fa(%rip)        # 605050 <mmap@GLIBC_2.2.5>
  400c56:	68 07 00 00 00       	pushq  $0x7
  400c5b:	e9 70 ff ff ff       	jmpq   400bd0 <.plt>

0000000000400c60 <printf@plt>:
  400c60:	ff 25 f2 43 20 00    	jmpq   *0x2043f2(%rip)        # 605058 <printf@GLIBC_2.2.5>
  400c66:	68 08 00 00 00       	pushq  $0x8
  400c6b:	e9 60 ff ff ff       	jmpq   400bd0 <.plt>

0000000000400c70 <memset@plt>:
  400c70:	ff 25 ea 43 20 00    	jmpq   *0x2043ea(%rip)        # 605060 <memset@GLIBC_2.2.5>
  400c76:	68 09 00 00 00       	pushq  $0x9
  400c7b:	e9 50 ff ff ff       	jmpq   400bd0 <.plt>

0000000000400c80 <alarm@plt>:
  400c80:	ff 25 e2 43 20 00    	jmpq   *0x2043e2(%rip)        # 605068 <alarm@GLIBC_2.2.5>
  400c86:	68 0a 00 00 00       	pushq  $0xa
  400c8b:	e9 40 ff ff ff       	jmpq   400bd0 <.plt>

0000000000400c90 <close@plt>:
  400c90:	ff 25 da 43 20 00    	jmpq   *0x2043da(%rip)        # 605070 <close@GLIBC_2.2.5>
  400c96:	68 0b 00 00 00       	pushq  $0xb
  400c9b:	e9 30 ff ff ff       	jmpq   400bd0 <.plt>

0000000000400ca0 <read@plt>:
  400ca0:	ff 25 d2 43 20 00    	jmpq   *0x2043d2(%rip)        # 605078 <read@GLIBC_2.2.5>
  400ca6:	68 0c 00 00 00       	pushq  $0xc
  400cab:	e9 20 ff ff ff       	jmpq   400bd0 <.plt>

0000000000400cb0 <signal@plt>:
  400cb0:	ff 25 ca 43 20 00    	jmpq   *0x2043ca(%rip)        # 605080 <signal@GLIBC_2.2.5>
  400cb6:	68 0d 00 00 00       	pushq  $0xd
  400cbb:	e9 10 ff ff ff       	jmpq   400bd0 <.plt>

0000000000400cc0 <gethostbyname@plt>:
  400cc0:	ff 25 c2 43 20 00    	jmpq   *0x2043c2(%rip)        # 605088 <gethostbyname@GLIBC_2.2.5>
  400cc6:	68 0e 00 00 00       	pushq  $0xe
  400ccb:	e9 00 ff ff ff       	jmpq   400bd0 <.plt>

0000000000400cd0 <fprintf@plt>:
  400cd0:	ff 25 ba 43 20 00    	jmpq   *0x2043ba(%rip)        # 605090 <fprintf@GLIBC_2.2.5>
  400cd6:	68 0f 00 00 00       	pushq  $0xf
  400cdb:	e9 f0 fe ff ff       	jmpq   400bd0 <.plt>

0000000000400ce0 <strtol@plt>:
  400ce0:	ff 25 b2 43 20 00    	jmpq   *0x2043b2(%rip)        # 605098 <strtol@GLIBC_2.2.5>
  400ce6:	68 10 00 00 00       	pushq  $0x10
  400ceb:	e9 e0 fe ff ff       	jmpq   400bd0 <.plt>

0000000000400cf0 <memcpy@plt>:
  400cf0:	ff 25 aa 43 20 00    	jmpq   *0x2043aa(%rip)        # 6050a0 <memcpy@GLIBC_2.14>
  400cf6:	68 11 00 00 00       	pushq  $0x11
  400cfb:	e9 d0 fe ff ff       	jmpq   400bd0 <.plt>

0000000000400d00 <time@plt>:
  400d00:	ff 25 a2 43 20 00    	jmpq   *0x2043a2(%rip)        # 6050a8 <time@GLIBC_2.2.5>
  400d06:	68 12 00 00 00       	pushq  $0x12
  400d0b:	e9 c0 fe ff ff       	jmpq   400bd0 <.plt>

0000000000400d10 <random@plt>:
  400d10:	ff 25 9a 43 20 00    	jmpq   *0x20439a(%rip)        # 6050b0 <random@GLIBC_2.2.5>
  400d16:	68 13 00 00 00       	pushq  $0x13
  400d1b:	e9 b0 fe ff ff       	jmpq   400bd0 <.plt>

0000000000400d20 <_IO_getc@plt>:
  400d20:	ff 25 92 43 20 00    	jmpq   *0x204392(%rip)        # 6050b8 <_IO_getc@GLIBC_2.2.5>
  400d26:	68 14 00 00 00       	pushq  $0x14
  400d2b:	e9 a0 fe ff ff       	jmpq   400bd0 <.plt>

0000000000400d30 <__isoc99_sscanf@plt>:
  400d30:	ff 25 8a 43 20 00    	jmpq   *0x20438a(%rip)        # 6050c0 <__isoc99_sscanf@GLIBC_2.7>
  400d36:	68 15 00 00 00       	pushq  $0x15
  400d3b:	e9 90 fe ff ff       	jmpq   400bd0 <.plt>

0000000000400d40 <munmap@plt>:
  400d40:	ff 25 82 43 20 00    	jmpq   *0x204382(%rip)        # 6050c8 <munmap@GLIBC_2.2.5>
  400d46:	68 16 00 00 00       	pushq  $0x16
  400d4b:	e9 80 fe ff ff       	jmpq   400bd0 <.plt>

0000000000400d50 <bcopy@plt>:
  400d50:	ff 25 7a 43 20 00    	jmpq   *0x20437a(%rip)        # 6050d0 <bcopy@GLIBC_2.2.5>
  400d56:	68 17 00 00 00       	pushq  $0x17
  400d5b:	e9 70 fe ff ff       	jmpq   400bd0 <.plt>

0000000000400d60 <fopen@plt>:
  400d60:	ff 25 72 43 20 00    	jmpq   *0x204372(%rip)        # 6050d8 <fopen@GLIBC_2.2.5>
  400d66:	68 18 00 00 00       	pushq  $0x18
  400d6b:	e9 60 fe ff ff       	jmpq   400bd0 <.plt>

0000000000400d70 <getopt@plt>:
  400d70:	ff 25 6a 43 20 00    	jmpq   *0x20436a(%rip)        # 6050e0 <getopt@GLIBC_2.2.5>
  400d76:	68 19 00 00 00       	pushq  $0x19
  400d7b:	e9 50 fe ff ff       	jmpq   400bd0 <.plt>

0000000000400d80 <strtoul@plt>:
  400d80:	ff 25 62 43 20 00    	jmpq   *0x204362(%rip)        # 6050e8 <strtoul@GLIBC_2.2.5>
  400d86:	68 1a 00 00 00       	pushq  $0x1a
  400d8b:	e9 40 fe ff ff       	jmpq   400bd0 <.plt>

0000000000400d90 <gethostname@plt>:
  400d90:	ff 25 5a 43 20 00    	jmpq   *0x20435a(%rip)        # 6050f0 <gethostname@GLIBC_2.2.5>
  400d96:	68 1b 00 00 00       	pushq  $0x1b
  400d9b:	e9 30 fe ff ff       	jmpq   400bd0 <.plt>

0000000000400da0 <sprintf@plt>:
  400da0:	ff 25 52 43 20 00    	jmpq   *0x204352(%rip)        # 6050f8 <sprintf@GLIBC_2.2.5>
  400da6:	68 1c 00 00 00       	pushq  $0x1c
  400dab:	e9 20 fe ff ff       	jmpq   400bd0 <.plt>

0000000000400db0 <exit@plt>:
  400db0:	ff 25 4a 43 20 00    	jmpq   *0x20434a(%rip)        # 605100 <exit@GLIBC_2.2.5>
  400db6:	68 1d 00 00 00       	pushq  $0x1d
  400dbb:	e9 10 fe ff ff       	jmpq   400bd0 <.plt>

0000000000400dc0 <connect@plt>:
  400dc0:	ff 25 42 43 20 00    	jmpq   *0x204342(%rip)        # 605108 <connect@GLIBC_2.2.5>
  400dc6:	68 1e 00 00 00       	pushq  $0x1e
  400dcb:	e9 00 fe ff ff       	jmpq   400bd0 <.plt>

0000000000400dd0 <socket@plt>:
  400dd0:	ff 25 3a 43 20 00    	jmpq   *0x20433a(%rip)        # 605110 <socket@GLIBC_2.2.5>
  400dd6:	68 1f 00 00 00       	pushq  $0x1f
  400ddb:	e9 f0 fd ff ff       	jmpq   400bd0 <.plt>

Disassembly of section .text:

0000000000400de0 <_start>:
  400de0:	31 ed                	xor    %ebp,%ebp
  400de2:	49 89 d1             	mov    %rdx,%r9
  400de5:	5e                   	pop    %rsi
  400de6:	48 89 e2             	mov    %rsp,%rdx
  400de9:	48 83 e4 f0          	and    $0xfffffffffffffff0,%rsp
  400ded:	50                   	push   %rax
  400dee:	54                   	push   %rsp
  400def:	49 c7 c0 70 2d 40 00 	mov    $0x402d70,%r8
  400df6:	48 c7 c1 00 2d 40 00 	mov    $0x402d00,%rcx
  400dfd:	48 c7 c7 8d 10 40 00 	mov    $0x40108d,%rdi
  400e04:	ff 15 e6 41 20 00    	callq  *0x2041e6(%rip)        # 604ff0 <__libc_start_main@GLIBC_2.2.5>
  400e0a:	f4                   	hlt    
  400e0b:	0f 1f 44 00 00       	nopl   0x0(%rax,%rax,1)

0000000000400e10 <deregister_tm_clones>:
  400e10:	b8 97 54 60 00       	mov    $0x605497,%eax
  400e15:	55                   	push   %rbp
  400e16:	48 2d 90 54 60 00    	sub    $0x605490,%rax
  400e1c:	48 83 f8 0e          	cmp    $0xe,%rax
  400e20:	48 89 e5             	mov    %rsp,%rbp
  400e23:	76 1b                	jbe    400e40 <deregister_tm_clones+0x30>
  400e25:	b8 00 00 00 00       	mov    $0x0,%eax
  400e2a:	48 85 c0             	test   %rax,%rax
  400e2d:	74 11                	je     400e40 <deregister_tm_clones+0x30>
  400e2f:	5d                   	pop    %rbp
  400e30:	bf 90 54 60 00       	mov    $0x605490,%edi
  400e35:	ff e0                	jmpq   *%rax
  400e37:	66 0f 1f 84 00 00 00 	nopw   0x0(%rax,%rax,1)
  400e3e:	00 00 
  400e40:	5d                   	pop    %rbp
  400e41:	c3                   	retq   
  400e42:	0f 1f 40 00          	nopl   0x0(%rax)
  400e46:	66 2e 0f 1f 84 00 00 	nopw   %cs:0x0(%rax,%rax,1)
  400e4d:	00 00 00 

0000000000400e50 <register_tm_clones>:
  400e50:	be 90 54 60 00       	mov    $0x605490,%esi
  400e55:	55                   	push   %rbp
  400e56:	48 81 ee 90 54 60 00 	sub    $0x605490,%rsi
  400e5d:	48 c1 fe 03          	sar    $0x3,%rsi
  400e61:	48 89 e5             	mov    %rsp,%rbp
  400e64:	48 89 f0             	mov    %rsi,%rax
  400e67:	48 c1 e8 3f          	shr    $0x3f,%rax
  400e6b:	48 01 c6             	add    %rax,%rsi
  400e6e:	48 d1 fe             	sar    %rsi
  400e71:	74 15                	je     400e88 <register_tm_clones+0x38>
  400e73:	b8 00 00 00 00       	mov    $0x0,%eax
  400e78:	48 85 c0             	test   %rax,%rax
  400e7b:	74 0b                	je     400e88 <register_tm_clones+0x38>
  400e7d:	5d                   	pop    %rbp
  400e7e:	bf 90 54 60 00       	mov    $0x605490,%edi
  400e83:	ff e0                	jmpq   *%rax
  400e85:	0f 1f 00             	nopl   (%rax)
  400e88:	5d                   	pop    %rbp
  400e89:	c3                   	retq   
  400e8a:	66 0f 1f 44 00 00    	nopw   0x0(%rax,%rax,1)

0000000000400e90 <__do_global_dtors_aux>:
  400e90:	80 3d 31 46 20 00 00 	cmpb   $0x0,0x204631(%rip)        # 6054c8 <completed.6972>
  400e97:	75 11                	jne    400eaa <__do_global_dtors_aux+0x1a>
  400e99:	55                   	push   %rbp
  400e9a:	48 89 e5             	mov    %rsp,%rbp
  400e9d:	e8 6e ff ff ff       	callq  400e10 <deregister_tm_clones>
  400ea2:	5d                   	pop    %rbp
  400ea3:	c6 05 1e 46 20 00 01 	movb   $0x1,0x20461e(%rip)        # 6054c8 <completed.6972>
  400eaa:	f3 c3                	repz retq 
  400eac:	0f 1f 40 00          	nopl   0x0(%rax)

0000000000400eb0 <frame_dummy>:
  400eb0:	bf 18 4e 60 00       	mov    $0x604e18,%edi
  400eb5:	48 83 3f 00          	cmpq   $0x0,(%rdi)
  400eb9:	75 05                	jne    400ec0 <frame_dummy+0x10>
  400ebb:	eb 93                	jmp    400e50 <register_tm_clones>
  400ebd:	0f 1f 00             	nopl   (%rax)
  400ec0:	b8 00 00 00 00       	mov    $0x0,%eax
  400ec5:	48 85 c0             	test   %rax,%rax
  400ec8:	74 f1                	je     400ebb <frame_dummy+0xb>
  400eca:	55                   	push   %rbp
  400ecb:	48 89 e5             	mov    %rsp,%rbp
  400ece:	ff d0                	callq  *%rax
  400ed0:	5d                   	pop    %rbp
  400ed1:	e9 7a ff ff ff       	jmpq   400e50 <register_tm_clones>

0000000000400ed6 <usage>:
  400ed6:	48 83 ec 08          	sub    $0x8,%rsp
  400eda:	48 89 fe             	mov    %rdi,%rsi
  400edd:	83 3d 24 46 20 00 00 	cmpl   $0x0,0x204624(%rip)        # 605508 <is_checker>
  400ee4:	74 4b                	je     400f31 <usage+0x5b>
  400ee6:	48 8d 3d 9b 1e 00 00 	lea    0x1e9b(%rip),%rdi        # 402d88 <_IO_stdin_used+0x8>
  400eed:	b8 00 00 00 00       	mov    $0x0,%eax
  400ef2:	e8 69 fd ff ff       	callq  400c60 <printf@plt>
  400ef7:	48 8d 3d c2 1e 00 00 	lea    0x1ec2(%rip),%rdi        # 402dc0 <_IO_stdin_used+0x40>
  400efe:	e8 2d fd ff ff       	callq  400c30 <puts@plt>
  400f03:	48 8d 3d ee 1f 00 00 	lea    0x1fee(%rip),%rdi        # 402ef8 <_IO_stdin_used+0x178>
  400f0a:	e8 21 fd ff ff       	callq  400c30 <puts@plt>
  400f0f:	48 8d 3d d2 1e 00 00 	lea    0x1ed2(%rip),%rdi        # 402de8 <_IO_stdin_used+0x68>
  400f16:	e8 15 fd ff ff       	callq  400c30 <puts@plt>
  400f1b:	48 8d 3d f0 1f 00 00 	lea    0x1ff0(%rip),%rdi        # 402f12 <_IO_stdin_used+0x192>
  400f22:	e8 09 fd ff ff       	callq  400c30 <puts@plt>
  400f27:	bf 00 00 00 00       	mov    $0x0,%edi
  400f2c:	e8 7f fe ff ff       	callq  400db0 <exit@plt>
  400f31:	48 8d 3d f6 1f 00 00 	lea    0x1ff6(%rip),%rdi        # 402f2e <_IO_stdin_used+0x1ae>
  400f38:	b8 00 00 00 00       	mov    $0x0,%eax
  400f3d:	e8 1e fd ff ff       	callq  400c60 <printf@plt>
  400f42:	48 8d 3d c7 1e 00 00 	lea    0x1ec7(%rip),%rdi        # 402e10 <_IO_stdin_used+0x90>
  400f49:	e8 e2 fc ff ff       	callq  400c30 <puts@plt>
  400f4e:	48 8d 3d e3 1e 00 00 	lea    0x1ee3(%rip),%rdi        # 402e38 <_IO_stdin_used+0xb8>
  400f55:	e8 d6 fc ff ff       	callq  400c30 <puts@plt>
  400f5a:	48 8d 3d eb 1f 00 00 	lea    0x1feb(%rip),%rdi        # 402f4c <_IO_stdin_used+0x1cc>
  400f61:	e8 ca fc ff ff       	callq  400c30 <puts@plt>
  400f66:	eb bf                	jmp    400f27 <usage+0x51>

0000000000400f68 <initialize_target>:
  400f68:	55                   	push   %rbp
  400f69:	53                   	push   %rbx
  400f6a:	48 81 ec 08 21 00 00 	sub    $0x2108,%rsp
  400f71:	89 f5                	mov    %esi,%ebp
  400f73:	89 3d 7f 45 20 00    	mov    %edi,0x20457f(%rip)        # 6054f8 <check_level>
  400f79:	8b 3d b1 41 20 00    	mov    0x2041b1(%rip),%edi        # 605130 <target_id>
  400f7f:	e8 5a 1d 00 00       	callq  402cde <gencookie>
  400f84:	89 05 7a 45 20 00    	mov    %eax,0x20457a(%rip)        # 605504 <cookie>
  400f8a:	89 c7                	mov    %eax,%edi
  400f8c:	e8 4d 1d 00 00       	callq  402cde <gencookie>
  400f91:	89 05 69 45 20 00    	mov    %eax,0x204569(%rip)        # 605500 <authkey>
  400f97:	8b 05 93 41 20 00    	mov    0x204193(%rip),%eax        # 605130 <target_id>
  400f9d:	8d 78 01             	lea    0x1(%rax),%edi
  400fa0:	e8 5b fc ff ff       	callq  400c00 <srandom@plt>
  400fa5:	e8 66 fd ff ff       	callq  400d10 <random@plt>
  400faa:	89 c7                	mov    %eax,%edi
  400fac:	e8 c3 02 00 00       	callq  401274 <scramble>
  400fb1:	89 c3                	mov    %eax,%ebx
  400fb3:	85 ed                	test   %ebp,%ebp
  400fb5:	75 3d                	jne    400ff4 <initialize_target+0x8c>
  400fb7:	b8 00 00 00 00       	mov    $0x0,%eax
  400fbc:	01 d8                	add    %ebx,%eax
  400fbe:	0f b7 c0             	movzwl %ax,%eax
  400fc1:	8d 04 c5 00 01 00 00 	lea    0x100(,%rax,8),%eax
  400fc8:	89 c0                	mov    %eax,%eax
  400fca:	48 89 05 af 44 20 00 	mov    %rax,0x2044af(%rip)        # 605480 <buf_offset>
  400fd1:	c6 05 50 51 20 00 72 	movb   $0x72,0x205150(%rip)        # 606128 <target_prefix>
  400fd8:	83 3d a9 44 20 00 00 	cmpl   $0x0,0x2044a9(%rip)        # 605488 <notify>
  400fdf:	74 09                	je     400fea <initialize_target+0x82>
  400fe1:	83 3d 20 45 20 00 00 	cmpl   $0x0,0x204520(%rip)        # 605508 <is_checker>
  400fe8:	74 22                	je     40100c <initialize_target+0xa4>
  400fea:	48 81 c4 08 21 00 00 	add    $0x2108,%rsp
  400ff1:	5b                   	pop    %rbx
  400ff2:	5d                   	pop    %rbp
  400ff3:	c3                   	retq   
  400ff4:	bf 00 00 00 00       	mov    $0x0,%edi
  400ff9:	e8 02 fd ff ff       	callq  400d00 <time@plt>
  400ffe:	89 c7                	mov    %eax,%edi
  401000:	e8 fb fb ff ff       	callq  400c00 <srandom@plt>
  401005:	e8 06 fd ff ff       	callq  400d10 <random@plt>
  40100a:	eb b0                	jmp    400fbc <initialize_target+0x54>
  40100c:	48 89 e7             	mov    %rsp,%rdi
  40100f:	be 00 01 00 00       	mov    $0x100,%esi
  401014:	e8 77 fd ff ff       	callq  400d90 <gethostname@plt>
  401019:	89 c3                	mov    %eax,%ebx
  40101b:	85 c0                	test   %eax,%eax
  40101d:	75 24                	jne    401043 <initialize_target+0xdb>
  40101f:	48 63 c3             	movslq %ebx,%rax
  401022:	48 8d 15 37 41 20 00 	lea    0x204137(%rip),%rdx        # 605160 <host_table>
  401029:	48 8b 3c c2          	mov    (%rdx,%rax,8),%rdi
  40102d:	48 85 ff             	test   %rdi,%rdi
  401030:	74 27                	je     401059 <initialize_target+0xf1>
  401032:	48 89 e6             	mov    %rsp,%rsi
  401035:	e8 a6 fb ff ff       	callq  400be0 <strcasecmp@plt>
  40103a:	85 c0                	test   %eax,%eax
  40103c:	74 1b                	je     401059 <initialize_target+0xf1>
  40103e:	83 c3 01             	add    $0x1,%ebx
  401041:	eb dc                	jmp    40101f <initialize_target+0xb7>
  401043:	48 8d 3d 1e 1e 00 00 	lea    0x1e1e(%rip),%rdi        # 402e68 <_IO_stdin_used+0xe8>
  40104a:	e8 e1 fb ff ff       	callq  400c30 <puts@plt>
  40104f:	bf 08 00 00 00       	mov    $0x8,%edi
  401054:	e8 57 fd ff ff       	callq  400db0 <exit@plt>
  401059:	48 8d bc 24 00 01 00 	lea    0x100(%rsp),%rdi
  401060:	00 
  401061:	e8 fd 19 00 00       	callq  402a63 <init_driver>
  401066:	85 c0                	test   %eax,%eax
  401068:	79 80                	jns    400fea <initialize_target+0x82>
  40106a:	48 8d b4 24 00 01 00 	lea    0x100(%rsp),%rsi
  401071:	00 
  401072:	48 8d 3d 27 1e 00 00 	lea    0x1e27(%rip),%rdi        # 402ea0 <_IO_stdin_used+0x120>
  401079:	b8 00 00 00 00       	mov    $0x0,%eax
  40107e:	e8 dd fb ff ff       	callq  400c60 <printf@plt>
  401083:	bf 08 00 00 00       	mov    $0x8,%edi
  401088:	e8 23 fd ff ff       	callq  400db0 <exit@plt>

000000000040108d <main>:
  40108d:	41 56                	push   %r14
  40108f:	41 55                	push   %r13
  401091:	41 54                	push   %r12
  401093:	55                   	push   %rbp
  401094:	53                   	push   %rbx
  401095:	41 89 fc             	mov    %edi,%r12d
  401098:	48 89 f3             	mov    %rsi,%rbx
  40109b:	48 c7 c6 09 1e 40 00 	mov    $0x401e09,%rsi
  4010a2:	bf 0b 00 00 00       	mov    $0xb,%edi
  4010a7:	e8 04 fc ff ff       	callq  400cb0 <signal@plt>
  4010ac:	48 c7 c6 b5 1d 40 00 	mov    $0x401db5,%rsi
  4010b3:	bf 07 00 00 00       	mov    $0x7,%edi
  4010b8:	e8 f3 fb ff ff       	callq  400cb0 <signal@plt>
  4010bd:	48 c7 c6 5d 1e 40 00 	mov    $0x401e5d,%rsi
  4010c4:	bf 04 00 00 00       	mov    $0x4,%edi
  4010c9:	e8 e2 fb ff ff       	callq  400cb0 <signal@plt>
  4010ce:	83 3d 33 44 20 00 00 	cmpl   $0x0,0x204433(%rip)        # 605508 <is_checker>
  4010d5:	75 58                	jne    40112f <main+0xa2>
  4010d7:	48 8d 2d 87 1e 00 00 	lea    0x1e87(%rip),%rbp        # 402f65 <_IO_stdin_used+0x1e5>
  4010de:	48 8b 05 bb 43 20 00 	mov    0x2043bb(%rip),%rax        # 6054a0 <stdin@@GLIBC_2.2.5>
  4010e5:	48 89 05 04 44 20 00 	mov    %rax,0x204404(%rip)        # 6054f0 <infile>
  4010ec:	41 bd 00 00 00 00    	mov    $0x0,%r13d
  4010f2:	41 be 00 00 00 00    	mov    $0x0,%r14d
  4010f8:	48 89 ea             	mov    %rbp,%rdx
  4010fb:	48 89 de             	mov    %rbx,%rsi
  4010fe:	44 89 e7             	mov    %r12d,%edi
  401101:	e8 6a fc ff ff       	callq  400d70 <getopt@plt>
  401106:	3c ff                	cmp    $0xff,%al
  401108:	0f 84 f8 00 00 00    	je     401206 <main+0x179>
  40110e:	0f be f0             	movsbl %al,%esi
  401111:	83 e8 61             	sub    $0x61,%eax
  401114:	3c 10                	cmp    $0x10,%al
  401116:	0f 87 d1 00 00 00    	ja     4011ed <main+0x160>
  40111c:	0f b6 c0             	movzbl %al,%eax
  40111f:	48 8d 15 8a 1e 00 00 	lea    0x1e8a(%rip),%rdx        # 402fb0 <_IO_stdin_used+0x230>
  401126:	48 63 04 82          	movslq (%rdx,%rax,4),%rax
  40112a:	48 01 d0             	add    %rdx,%rax
  40112d:	ff e0                	jmpq   *%rax
  40112f:	48 c7 c6 b1 1e 40 00 	mov    $0x401eb1,%rsi
  401136:	bf 0e 00 00 00       	mov    $0xe,%edi
  40113b:	e8 70 fb ff ff       	callq  400cb0 <signal@plt>
  401140:	bf 05 00 00 00       	mov    $0x5,%edi
  401145:	e8 36 fb ff ff       	callq  400c80 <alarm@plt>
  40114a:	48 8d 2d 19 1e 00 00 	lea    0x1e19(%rip),%rbp        # 402f6a <_IO_stdin_used+0x1ea>
  401151:	eb 8b                	jmp    4010de <main+0x51>
  401153:	48 8b 3b             	mov    (%rbx),%rdi
  401156:	e8 7b fd ff ff       	callq  400ed6 <usage>
  40115b:	48 8d 35 93 20 00 00 	lea    0x2093(%rip),%rsi        # 4031f5 <_IO_stdin_used+0x475>
  401162:	48 8b 3d 3f 43 20 00 	mov    0x20433f(%rip),%rdi        # 6054a8 <optarg@@GLIBC_2.2.5>
  401169:	e8 f2 fb ff ff       	callq  400d60 <fopen@plt>
  40116e:	48 89 05 7b 43 20 00 	mov    %rax,0x20437b(%rip)        # 6054f0 <infile>
  401175:	48 85 c0             	test   %rax,%rax
  401178:	0f 85 7a ff ff ff    	jne    4010f8 <main+0x6b>
  40117e:	48 8b 15 23 43 20 00 	mov    0x204323(%rip),%rdx        # 6054a8 <optarg@@GLIBC_2.2.5>
  401185:	48 8d 35 e6 1d 00 00 	lea    0x1de6(%rip),%rsi        # 402f72 <_IO_stdin_used+0x1f2>
  40118c:	48 8b 3d 2d 43 20 00 	mov    0x20432d(%rip),%rdi        # 6054c0 <stderr@@GLIBC_2.2.5>
  401193:	e8 38 fb ff ff       	callq  400cd0 <fprintf@plt>
  401198:	b8 01 00 00 00       	mov    $0x1,%eax
  40119d:	e9 c9 00 00 00       	jmpq   40126b <main+0x1de>
  4011a2:	ba 10 00 00 00       	mov    $0x10,%edx
  4011a7:	be 00 00 00 00       	mov    $0x0,%esi
  4011ac:	48 8b 3d f5 42 20 00 	mov    0x2042f5(%rip),%rdi        # 6054a8 <optarg@@GLIBC_2.2.5>
  4011b3:	e8 c8 fb ff ff       	callq  400d80 <strtoul@plt>
  4011b8:	41 89 c6             	mov    %eax,%r14d
  4011bb:	e9 38 ff ff ff       	jmpq   4010f8 <main+0x6b>
  4011c0:	ba 0a 00 00 00       	mov    $0xa,%edx
  4011c5:	be 00 00 00 00       	mov    $0x0,%esi
  4011ca:	48 8b 3d d7 42 20 00 	mov    0x2042d7(%rip),%rdi        # 6054a8 <optarg@@GLIBC_2.2.5>
  4011d1:	e8 0a fb ff ff       	callq  400ce0 <strtol@plt>
  4011d6:	41 89 c5             	mov    %eax,%r13d
  4011d9:	e9 1a ff ff ff       	jmpq   4010f8 <main+0x6b>
  4011de:	c7 05 a0 42 20 00 00 	movl   $0x0,0x2042a0(%rip)        # 605488 <notify>
  4011e5:	00 00 00 
  4011e8:	e9 0b ff ff ff       	jmpq   4010f8 <main+0x6b>
  4011ed:	48 8d 3d 9b 1d 00 00 	lea    0x1d9b(%rip),%rdi        # 402f8f <_IO_stdin_used+0x20f>
  4011f4:	b8 00 00 00 00       	mov    $0x0,%eax
  4011f9:	e8 62 fa ff ff       	callq  400c60 <printf@plt>
  4011fe:	48 8b 3b             	mov    (%rbx),%rdi
  401201:	e8 d0 fc ff ff       	callq  400ed6 <usage>
  401206:	be 01 00 00 00       	mov    $0x1,%esi
  40120b:	44 89 ef             	mov    %r13d,%edi
  40120e:	e8 55 fd ff ff       	callq  400f68 <initialize_target>
  401213:	83 3d ee 42 20 00 00 	cmpl   $0x0,0x2042ee(%rip)        # 605508 <is_checker>
  40121a:	74 27                	je     401243 <main+0x1b6>
  40121c:	44 3b 35 dd 42 20 00 	cmp    0x2042dd(%rip),%r14d        # 605500 <authkey>
  401223:	74 1e                	je     401243 <main+0x1b6>
  401225:	44 89 f6             	mov    %r14d,%esi
  401228:	48 8d 3d 99 1c 00 00 	lea    0x1c99(%rip),%rdi        # 402ec8 <_IO_stdin_used+0x148>
  40122f:	b8 00 00 00 00       	mov    $0x0,%eax
  401234:	e8 27 fa ff ff       	callq  400c60 <printf@plt>
  401239:	b8 00 00 00 00       	mov    $0x0,%eax
  40123e:	e8 42 08 00 00       	callq  401a85 <check_fail>
  401243:	8b 35 bb 42 20 00    	mov    0x2042bb(%rip),%esi        # 605504 <cookie>
  401249:	48 8d 3d 52 1d 00 00 	lea    0x1d52(%rip),%rdi        # 402fa2 <_IO_stdin_used+0x222>
  401250:	b8 00 00 00 00       	mov    $0x0,%eax
  401255:	e8 06 fa ff ff       	callq  400c60 <printf@plt>
  40125a:	48 8b 3d 1f 42 20 00 	mov    0x20421f(%rip),%rdi        # 605480 <buf_offset>
  401261:	e8 9d 0c 00 00       	callq  401f03 <launch>
  401266:	b8 00 00 00 00       	mov    $0x0,%eax
  40126b:	5b                   	pop    %rbx
  40126c:	5d                   	pop    %rbp
  40126d:	41 5c                	pop    %r12
  40126f:	41 5d                	pop    %r13
  401271:	41 5e                	pop    %r14
  401273:	c3                   	retq   

0000000000401274 <scramble>:
  401274:	b8 00 00 00 00       	mov    $0x0,%eax
  401279:	eb 11                	jmp    40128c <scramble+0x18>
  40127b:	69 d0 55 e0 00 00    	imul   $0xe055,%eax,%edx
  401281:	01 fa                	add    %edi,%edx
  401283:	89 c1                	mov    %eax,%ecx
  401285:	89 54 8c d0          	mov    %edx,-0x30(%rsp,%rcx,4)
  401289:	83 c0 01             	add    $0x1,%eax
  40128c:	83 f8 09             	cmp    $0x9,%eax
  40128f:	76 ea                	jbe    40127b <scramble+0x7>
  401291:	8b 44 24 ec          	mov    -0x14(%rsp),%eax
  401295:	69 c0 50 12 00 00    	imul   $0x1250,%eax,%eax
  40129b:	89 44 24 ec          	mov    %eax,-0x14(%rsp)
  40129f:	8b 44 24 d0          	mov    -0x30(%rsp),%eax
  4012a3:	69 c0 21 0b 00 00    	imul   $0xb21,%eax,%eax
  4012a9:	89 44 24 d0          	mov    %eax,-0x30(%rsp)
  4012ad:	8b 44 24 dc          	mov    -0x24(%rsp),%eax
  4012b1:	69 c0 89 2e 00 00    	imul   $0x2e89,%eax,%eax
  4012b7:	89 44 24 dc          	mov    %eax,-0x24(%rsp)
  4012bb:	8b 44 24 e0          	mov    -0x20(%rsp),%eax
  4012bf:	69 c0 bc 2b 00 00    	imul   $0x2bbc,%eax,%eax
  4012c5:	89 44 24 e0          	mov    %eax,-0x20(%rsp)
  4012c9:	8b 44 24 d0          	mov    -0x30(%rsp),%eax
  4012cd:	69 c0 b6 db 00 00    	imul   $0xdbb6,%eax,%eax
  4012d3:	89 44 24 d0          	mov    %eax,-0x30(%rsp)
  4012d7:	8b 44 24 ec          	mov    -0x14(%rsp),%eax
  4012db:	69 c0 84 e0 00 00    	imul   $0xe084,%eax,%eax
  4012e1:	89 44 24 ec          	mov    %eax,-0x14(%rsp)
  4012e5:	8b 44 24 ec          	mov    -0x14(%rsp),%eax
  4012e9:	69 c0 48 3c 00 00    	imul   $0x3c48,%eax,%eax
  4012ef:	89 44 24 ec          	mov    %eax,-0x14(%rsp)
  4012f3:	8b 44 24 f0          	mov    -0x10(%rsp),%eax
  4012f7:	69 c0 d3 05 00 00    	imul   $0x5d3,%eax,%eax
  4012fd:	89 44 24 f0          	mov    %eax,-0x10(%rsp)
  401301:	8b 44 24 e8          	mov    -0x18(%rsp),%eax
  401305:	69 c0 b8 e2 00 00    	imul   $0xe2b8,%eax,%eax
  40130b:	89 44 24 e8          	mov    %eax,-0x18(%rsp)
  40130f:	8b 44 24 e4          	mov    -0x1c(%rsp),%eax
  401313:	69 c0 ef 54 00 00    	imul   $0x54ef,%eax,%eax
  401319:	89 44 24 e4          	mov    %eax,-0x1c(%rsp)
  40131d:	8b 44 24 e0          	mov    -0x20(%rsp),%eax
  401321:	69 c0 29 ed 00 00    	imul   $0xed29,%eax,%eax
  401327:	89 44 24 e0          	mov    %eax,-0x20(%rsp)
  40132b:	8b 44 24 e8          	mov    -0x18(%rsp),%eax
  40132f:	69 c0 36 83 00 00    	imul   $0x8336,%eax,%eax
  401335:	89 44 24 e8          	mov    %eax,-0x18(%rsp)
  401339:	8b 44 24 ec          	mov    -0x14(%rsp),%eax
  40133d:	69 c0 c1 87 00 00    	imul   $0x87c1,%eax,%eax
  401343:	89 44 24 ec          	mov    %eax,-0x14(%rsp)
  401347:	8b 44 24 f0          	mov    -0x10(%rsp),%eax
  40134b:	69 c0 f3 2f 00 00    	imul   $0x2ff3,%eax,%eax
  401351:	89 44 24 f0          	mov    %eax,-0x10(%rsp)
  401355:	8b 44 24 e4          	mov    -0x1c(%rsp),%eax
  401359:	69 c0 c0 e8 00 00    	imul   $0xe8c0,%eax,%eax
  40135f:	89 44 24 e4          	mov    %eax,-0x1c(%rsp)
  401363:	8b 44 24 e0          	mov    -0x20(%rsp),%eax
  401367:	69 c0 6b 6a 00 00    	imul   $0x6a6b,%eax,%eax
  40136d:	89 44 24 e0          	mov    %eax,-0x20(%rsp)
  401371:	8b 44 24 e4          	mov    -0x1c(%rsp),%eax
  401375:	69 c0 98 7b 00 00    	imul   $0x7b98,%eax,%eax
  40137b:	89 44 24 e4          	mov    %eax,-0x1c(%rsp)
  40137f:	8b 44 24 f0          	mov    -0x10(%rsp),%eax
  401383:	69 c0 7e 5e 00 00    	imul   $0x5e7e,%eax,%eax
  401389:	89 44 24 f0          	mov    %eax,-0x10(%rsp)
  40138d:	8b 44 24 f0          	mov    -0x10(%rsp),%eax
  401391:	69 c0 e6 80 00 00    	imul   $0x80e6,%eax,%eax
  401397:	89 44 24 f0          	mov    %eax,-0x10(%rsp)
  40139b:	8b 44 24 f4          	mov    -0xc(%rsp),%eax
  40139f:	69 c0 92 c1 00 00    	imul   $0xc192,%eax,%eax
  4013a5:	89 44 24 f4          	mov    %eax,-0xc(%rsp)
  4013a9:	8b 44 24 e0          	mov    -0x20(%rsp),%eax
  4013ad:	69 c0 6c d2 00 00    	imul   $0xd26c,%eax,%eax
  4013b3:	89 44 24 e0          	mov    %eax,-0x20(%rsp)
  4013b7:	8b 44 24 d4          	mov    -0x2c(%rsp),%eax
  4013bb:	69 c0 4a 65 00 00    	imul   $0x654a,%eax,%eax
  4013c1:	89 44 24 d4          	mov    %eax,-0x2c(%rsp)
  4013c5:	8b 44 24 d8          	mov    -0x28(%rsp),%eax
  4013c9:	69 c0 19 79 00 00    	imul   $0x7919,%eax,%eax
  4013cf:	89 44 24 d8          	mov    %eax,-0x28(%rsp)
  4013d3:	8b 44 24 e8          	mov    -0x18(%rsp),%eax
  4013d7:	69 c0 49 87 00 00    	imul   $0x8749,%eax,%eax
  4013dd:	89 44 24 e8          	mov    %eax,-0x18(%rsp)
  4013e1:	8b 44 24 d8          	mov    -0x28(%rsp),%eax
  4013e5:	69 c0 b6 f5 00 00    	imul   $0xf5b6,%eax,%eax
  4013eb:	89 44 24 d8          	mov    %eax,-0x28(%rsp)
  4013ef:	8b 44 24 dc          	mov    -0x24(%rsp),%eax
  4013f3:	69 c0 2d 56 00 00    	imul   $0x562d,%eax,%eax
  4013f9:	89 44 24 dc          	mov    %eax,-0x24(%rsp)
  4013fd:	8b 44 24 f4          	mov    -0xc(%rsp),%eax
  401401:	69 c0 87 a4 00 00    	imul   $0xa487,%eax,%eax
  401407:	89 44 24 f4          	mov    %eax,-0xc(%rsp)
  40140b:	8b 44 24 d0          	mov    -0x30(%rsp),%eax
  40140f:	69 c0 79 0e 00 00    	imul   $0xe79,%eax,%eax
  401415:	89 44 24 d0          	mov    %eax,-0x30(%rsp)
  401419:	8b 44 24 dc          	mov    -0x24(%rsp),%eax
  40141d:	69 c0 e1 83 00 00    	imul   $0x83e1,%eax,%eax
  401423:	89 44 24 dc          	mov    %eax,-0x24(%rsp)
  401427:	8b 44 24 e4          	mov    -0x1c(%rsp),%eax
  40142b:	69 c0 5e b6 00 00    	imul   $0xb65e,%eax,%eax
  401431:	89 44 24 e4          	mov    %eax,-0x1c(%rsp)
  401435:	8b 44 24 e8          	mov    -0x18(%rsp),%eax
  401439:	69 c0 48 4d 00 00    	imul   $0x4d48,%eax,%eax
  40143f:	89 44 24 e8          	mov    %eax,-0x18(%rsp)
  401443:	8b 44 24 e0          	mov    -0x20(%rsp),%eax
  401447:	69 c0 b1 67 00 00    	imul   $0x67b1,%eax,%eax
  40144d:	89 44 24 e0          	mov    %eax,-0x20(%rsp)
  401451:	8b 44 24 dc          	mov    -0x24(%rsp),%eax
  401455:	69 c0 57 96 00 00    	imul   $0x9657,%eax,%eax
  40145b:	89 44 24 dc          	mov    %eax,-0x24(%rsp)
  40145f:	8b 44 24 dc          	mov    -0x24(%rsp),%eax
  401463:	69 c0 02 73 00 00    	imul   $0x7302,%eax,%eax
  401469:	89 44 24 dc          	mov    %eax,-0x24(%rsp)
  40146d:	8b 44 24 ec          	mov    -0x14(%rsp),%eax
  401471:	69 c0 69 50 00 00    	imul   $0x5069,%eax,%eax
  401477:	89 44 24 ec          	mov    %eax,-0x14(%rsp)
  40147b:	8b 44 24 dc          	mov    -0x24(%rsp),%eax
  40147f:	69 c0 da 73 00 00    	imul   $0x73da,%eax,%eax
  401485:	89 44 24 dc          	mov    %eax,-0x24(%rsp)
  401489:	8b 44 24 d4          	mov    -0x2c(%rsp),%eax
  40148d:	69 c0 ab d6 00 00    	imul   $0xd6ab,%eax,%eax
  401493:	89 44 24 d4          	mov    %eax,-0x2c(%rsp)
  401497:	8b 44 24 ec          	mov    -0x14(%rsp),%eax
  40149b:	69 c0 8a 31 00 00    	imul   $0x318a,%eax,%eax
  4014a1:	89 44 24 ec          	mov    %eax,-0x14(%rsp)
  4014a5:	8b 44 24 e8          	mov    -0x18(%rsp),%eax
  4014a9:	69 c0 43 44 00 00    	imul   $0x4443,%eax,%eax
  4014af:	89 44 24 e8          	mov    %eax,-0x18(%rsp)
  4014b3:	8b 44 24 e4          	mov    -0x1c(%rsp),%eax
  4014b7:	69 c0 97 ab 00 00    	imul   $0xab97,%eax,%eax
  4014bd:	89 44 24 e4          	mov    %eax,-0x1c(%rsp)
  4014c1:	8b 44 24 e0          	mov    -0x20(%rsp),%eax
  4014c5:	69 c0 0c 95 00 00    	imul   $0x950c,%eax,%eax
  4014cb:	89 44 24 e0          	mov    %eax,-0x20(%rsp)
  4014cf:	8b 44 24 ec          	mov    -0x14(%rsp),%eax
  4014d3:	69 c0 d8 1c 00 00    	imul   $0x1cd8,%eax,%eax
  4014d9:	89 44 24 ec          	mov    %eax,-0x14(%rsp)
  4014dd:	8b 44 24 d4          	mov    -0x2c(%rsp),%eax
  4014e1:	69 c0 27 db 00 00    	imul   $0xdb27,%eax,%eax
  4014e7:	89 44 24 d4          	mov    %eax,-0x2c(%rsp)
  4014eb:	8b 44 24 e0          	mov    -0x20(%rsp),%eax
  4014ef:	69 c0 dc 65 00 00    	imul   $0x65dc,%eax,%eax
  4014f5:	89 44 24 e0          	mov    %eax,-0x20(%rsp)
  4014f9:	8b 44 24 e8          	mov    -0x18(%rsp),%eax
  4014fd:	69 c0 be 69 00 00    	imul   $0x69be,%eax,%eax
  401503:	89 44 24 e8          	mov    %eax,-0x18(%rsp)
  401507:	8b 44 24 f0          	mov    -0x10(%rsp),%eax
  40150b:	69 c0 a9 cb 00 00    	imul   $0xcba9,%eax,%eax
  401511:	89 44 24 f0          	mov    %eax,-0x10(%rsp)
  401515:	8b 44 24 d0          	mov    -0x30(%rsp),%eax
  401519:	69 c0 04 3d 00 00    	imul   $0x3d04,%eax,%eax
  40151f:	89 44 24 d0          	mov    %eax,-0x30(%rsp)
  401523:	8b 44 24 e4          	mov    -0x1c(%rsp),%eax
  401527:	69 c0 e7 7f 00 00    	imul   $0x7fe7,%eax,%eax
  40152d:	89 44 24 e4          	mov    %eax,-0x1c(%rsp)
  401531:	8b 44 24 f4          	mov    -0xc(%rsp),%eax
  401535:	69 c0 89 f9 00 00    	imul   $0xf989,%eax,%eax
  40153b:	89 44 24 f4          	mov    %eax,-0xc(%rsp)
  40153f:	8b 44 24 f0          	mov    -0x10(%rsp),%eax
  401543:	69 c0 99 ea 00 00    	imul   $0xea99,%eax,%eax
  401549:	89 44 24 f0          	mov    %eax,-0x10(%rsp)
  40154d:	8b 44 24 e4          	mov    -0x1c(%rsp),%eax
  401551:	69 c0 7e 27 00 00    	imul   $0x277e,%eax,%eax
  401557:	89 44 24 e4          	mov    %eax,-0x1c(%rsp)
  40155b:	8b 44 24 d8          	mov    -0x28(%rsp),%eax
  40155f:	69 c0 c8 6c 00 00    	imul   $0x6cc8,%eax,%eax
  401565:	89 44 24 d8          	mov    %eax,-0x28(%rsp)
  401569:	8b 44 24 f0          	mov    -0x10(%rsp),%eax
  40156d:	69 c0 98 37 00 00    	imul   $0x3798,%eax,%eax
  401573:	89 44 24 f0          	mov    %eax,-0x10(%rsp)
  401577:	8b 44 24 dc          	mov    -0x24(%rsp),%eax
  40157b:	69 c0 ef 4d 00 00    	imul   $0x4def,%eax,%eax
  401581:	89 44 24 dc          	mov    %eax,-0x24(%rsp)
  401585:	8b 44 24 d8          	mov    -0x28(%rsp),%eax
  401589:	69 c0 26 57 00 00    	imul   $0x5726,%eax,%eax
  40158f:	89 44 24 d8          	mov    %eax,-0x28(%rsp)
  401593:	8b 44 24 e4          	mov    -0x1c(%rsp),%eax
  401597:	69 c0 d4 b5 00 00    	imul   $0xb5d4,%eax,%eax
  40159d:	89 44 24 e4          	mov    %eax,-0x1c(%rsp)
  4015a1:	8b 44 24 d0          	mov    -0x30(%rsp),%eax
  4015a5:	69 c0 4a fb 00 00    	imul   $0xfb4a,%eax,%eax
  4015ab:	89 44 24 d0          	mov    %eax,-0x30(%rsp)
  4015af:	8b 44 24 dc          	mov    -0x24(%rsp),%eax
  4015b3:	69 c0 c6 25 00 00    	imul   $0x25c6,%eax,%eax
  4015b9:	89 44 24 dc          	mov    %eax,-0x24(%rsp)
  4015bd:	8b 44 24 d0          	mov    -0x30(%rsp),%eax
  4015c1:	69 c0 fe fd 00 00    	imul   $0xfdfe,%eax,%eax
  4015c7:	89 44 24 d0          	mov    %eax,-0x30(%rsp)
  4015cb:	8b 44 24 d0          	mov    -0x30(%rsp),%eax
  4015cf:	69 c0 7a 35 00 00    	imul   $0x357a,%eax,%eax
  4015d5:	89 44 24 d0          	mov    %eax,-0x30(%rsp)
  4015d9:	8b 44 24 d4          	mov    -0x2c(%rsp),%eax
  4015dd:	69 c0 dd a7 00 00    	imul   $0xa7dd,%eax,%eax
  4015e3:	89 44 24 d4          	mov    %eax,-0x2c(%rsp)
  4015e7:	8b 44 24 dc          	mov    -0x24(%rsp),%eax
  4015eb:	69 c0 c3 1e 00 00    	imul   $0x1ec3,%eax,%eax
  4015f1:	89 44 24 dc          	mov    %eax,-0x24(%rsp)
  4015f5:	8b 44 24 e0          	mov    -0x20(%rsp),%eax
  4015f9:	69 c0 7e 34 00 00    	imul   $0x347e,%eax,%eax
  4015ff:	89 44 24 e0          	mov    %eax,-0x20(%rsp)
  401603:	8b 44 24 f4          	mov    -0xc(%rsp),%eax
  401607:	69 c0 3d b8 00 00    	imul   $0xb83d,%eax,%eax
  40160d:	89 44 24 f4          	mov    %eax,-0xc(%rsp)
  401611:	8b 44 24 d8          	mov    -0x28(%rsp),%eax
  401615:	69 c0 93 91 00 00    	imul   $0x9193,%eax,%eax
  40161b:	89 44 24 d8          	mov    %eax,-0x28(%rsp)
  40161f:	8b 44 24 e0          	mov    -0x20(%rsp),%eax
  401623:	69 c0 fa 77 00 00    	imul   $0x77fa,%eax,%eax
  401629:	89 44 24 e0          	mov    %eax,-0x20(%rsp)
  40162d:	8b 44 24 e0          	mov    -0x20(%rsp),%eax
  401631:	69 c0 49 01 00 00    	imul   $0x149,%eax,%eax
  401637:	89 44 24 e0          	mov    %eax,-0x20(%rsp)
  40163b:	8b 44 24 e8          	mov    -0x18(%rsp),%eax
  40163f:	69 c0 3c b7 00 00    	imul   $0xb73c,%eax,%eax
  401645:	89 44 24 e8          	mov    %eax,-0x18(%rsp)
  401649:	8b 44 24 ec          	mov    -0x14(%rsp),%eax
  40164d:	69 c0 14 83 00 00    	imul   $0x8314,%eax,%eax
  401653:	89 44 24 ec          	mov    %eax,-0x14(%rsp)
  401657:	8b 44 24 f4          	mov    -0xc(%rsp),%eax
  40165b:	69 c0 bd b4 00 00    	imul   $0xb4bd,%eax,%eax
  401661:	89 44 24 f4          	mov    %eax,-0xc(%rsp)
  401665:	8b 44 24 d0          	mov    -0x30(%rsp),%eax
  401669:	69 c0 b1 fe 00 00    	imul   $0xfeb1,%eax,%eax
  40166f:	89 44 24 d0          	mov    %eax,-0x30(%rsp)
  401673:	8b 44 24 f4          	mov    -0xc(%rsp),%eax
  401677:	69 c0 6e c6 00 00    	imul   $0xc66e,%eax,%eax
  40167d:	89 44 24 f4          	mov    %eax,-0xc(%rsp)
  401681:	8b 44 24 f0          	mov    -0x10(%rsp),%eax
  401685:	69 c0 3e 3d 00 00    	imul   $0x3d3e,%eax,%eax
  40168b:	89 44 24 f0          	mov    %eax,-0x10(%rsp)
  40168f:	8b 44 24 e0          	mov    -0x20(%rsp),%eax
  401693:	69 c0 6c d0 00 00    	imul   $0xd06c,%eax,%eax
  401699:	89 44 24 e0          	mov    %eax,-0x20(%rsp)
  40169d:	8b 44 24 e8          	mov    -0x18(%rsp),%eax
  4016a1:	69 c0 d7 77 00 00    	imul   $0x77d7,%eax,%eax
  4016a7:	89 44 24 e8          	mov    %eax,-0x18(%rsp)
  4016ab:	8b 44 24 d0          	mov    -0x30(%rsp),%eax
  4016af:	69 c0 f9 a2 00 00    	imul   $0xa2f9,%eax,%eax
  4016b5:	89 44 24 d0          	mov    %eax,-0x30(%rsp)
  4016b9:	8b 44 24 e8          	mov    -0x18(%rsp),%eax
  4016bd:	69 c0 0a 07 00 00    	imul   $0x70a,%eax,%eax
  4016c3:	89 44 24 e8          	mov    %eax,-0x18(%rsp)
  4016c7:	8b 44 24 e0          	mov    -0x20(%rsp),%eax
  4016cb:	69 c0 95 04 00 00    	imul   $0x495,%eax,%eax
  4016d1:	89 44 24 e0          	mov    %eax,-0x20(%rsp)
  4016d5:	8b 44 24 e8          	mov    -0x18(%rsp),%eax
  4016d9:	69 c0 66 60 00 00    	imul   $0x6066,%eax,%eax
  4016df:	89 44 24 e8          	mov    %eax,-0x18(%rsp)
  4016e3:	8b 44 24 ec          	mov    -0x14(%rsp),%eax
  4016e7:	69 c0 8f 69 00 00    	imul   $0x698f,%eax,%eax
  4016ed:	89 44 24 ec          	mov    %eax,-0x14(%rsp)
  4016f1:	8b 44 24 ec          	mov    -0x14(%rsp),%eax
  4016f5:	69 c0 a8 5f 00 00    	imul   $0x5fa8,%eax,%eax
  4016fb:	89 44 24 ec          	mov    %eax,-0x14(%rsp)
  4016ff:	8b 44 24 f0          	mov    -0x10(%rsp),%eax
  401703:	69 c0 0b ab 00 00    	imul   $0xab0b,%eax,%eax
  401709:	89 44 24 f0          	mov    %eax,-0x10(%rsp)
  40170d:	8b 44 24 d4          	mov    -0x2c(%rsp),%eax
  401711:	69 c0 4b c6 00 00    	imul   $0xc64b,%eax,%eax
  401717:	89 44 24 d4          	mov    %eax,-0x2c(%rsp)
  40171b:	8b 44 24 e8          	mov    -0x18(%rsp),%eax
  40171f:	69 c0 d4 99 00 00    	imul   $0x99d4,%eax,%eax
  401725:	89 44 24 e8          	mov    %eax,-0x18(%rsp)
  401729:	ba 00 00 00 00       	mov    $0x0,%edx
  40172e:	b8 00 00 00 00       	mov    $0x0,%eax
  401733:	eb 0b                	jmp    401740 <scramble+0x4cc>
  401735:	89 d1                	mov    %edx,%ecx
  401737:	8b 4c 8c d0          	mov    -0x30(%rsp,%rcx,4),%ecx
  40173b:	01 c8                	add    %ecx,%eax
  40173d:	83 c2 01             	add    $0x1,%edx
  401740:	83 fa 09             	cmp    $0x9,%edx
  401743:	76 f0                	jbe    401735 <scramble+0x4c1>
  401745:	f3 c3                	repz retq 

0000000000401747 <getbuf>:
  401747:	48 83 ec 38          	sub    $0x38,%rsp
  40174b:	48 89 e7             	mov    %rsp,%rdi
  40174e:	e8 65 03 00 00       	callq  401ab8 <Gets>
  401753:	b8 01 00 00 00       	mov    $0x1,%eax
  401758:	48 83 c4 38          	add    $0x38,%rsp
  40175c:	c3                   	retq   

000000000040175d <touch1>:
  40175d:	48 83 ec 08          	sub    $0x8,%rsp
  401761:	c7 05 91 3d 20 00 01 	movl   $0x1,0x203d91(%rip)        # 6054fc <vlevel>
  401768:	00 00 00 
  40176b:	48 8d 3d d9 18 00 00 	lea    0x18d9(%rip),%rdi        # 40304b <_IO_stdin_used+0x2cb>
  401772:	e8 b9 f4 ff ff       	callq  400c30 <puts@plt>
  401777:	bf 01 00 00 00       	mov    $0x1,%edi
  40177c:	e8 4e 05 00 00       	callq  401ccf <validate>
  401781:	bf 00 00 00 00       	mov    $0x0,%edi
  401786:	e8 25 f6 ff ff       	callq  400db0 <exit@plt>

000000000040178b <touch2>:
  40178b:	48 83 ec 08          	sub    $0x8,%rsp
  40178f:	89 fe                	mov    %edi,%esi
  401791:	c7 05 61 3d 20 00 02 	movl   $0x2,0x203d61(%rip)        # 6054fc <vlevel>
  401798:	00 00 00 
  40179b:	39 3d 63 3d 20 00    	cmp    %edi,0x203d63(%rip)        # 605504 <cookie>
  4017a1:	74 25                	je     4017c8 <touch2+0x3d>
  4017a3:	48 8d 3d ee 18 00 00 	lea    0x18ee(%rip),%rdi        # 403098 <_IO_stdin_used+0x318>
  4017aa:	b8 00 00 00 00       	mov    $0x0,%eax
  4017af:	e8 ac f4 ff ff       	callq  400c60 <printf@plt>
  4017b4:	bf 02 00 00 00       	mov    $0x2,%edi
  4017b9:	e8 cf 05 00 00       	callq  401d8d <fail>
  4017be:	bf 00 00 00 00       	mov    $0x0,%edi
  4017c3:	e8 e8 f5 ff ff       	callq  400db0 <exit@plt>
  4017c8:	48 8d 3d a1 18 00 00 	lea    0x18a1(%rip),%rdi        # 403070 <_IO_stdin_used+0x2f0>
  4017cf:	b8 00 00 00 00       	mov    $0x0,%eax
  4017d4:	e8 87 f4 ff ff       	callq  400c60 <printf@plt>
  4017d9:	bf 02 00 00 00       	mov    $0x2,%edi
  4017de:	e8 ec 04 00 00       	callq  401ccf <validate>
  4017e3:	eb d9                	jmp    4017be <touch2+0x33>

00000000004017e5 <hexmatch>:
  4017e5:	41 54                	push   %r12
  4017e7:	55                   	push   %rbp
  4017e8:	53                   	push   %rbx
  4017e9:	48 83 ec 70          	sub    $0x70,%rsp
  4017ed:	89 fd                	mov    %edi,%ebp
  4017ef:	48 89 f3             	mov    %rsi,%rbx
  4017f2:	e8 19 f5 ff ff       	callq  400d10 <random@plt>
  4017f7:	48 89 c1             	mov    %rax,%rcx
  4017fa:	48 ba 0b d7 a3 70 3d 	movabs $0xa3d70a3d70a3d70b,%rdx
  401801:	0a d7 a3 
  401804:	48 f7 ea             	imul   %rdx
  401807:	48 01 ca             	add    %rcx,%rdx
  40180a:	48 c1 fa 06          	sar    $0x6,%rdx
  40180e:	48 89 c8             	mov    %rcx,%rax
  401811:	48 c1 f8 3f          	sar    $0x3f,%rax
  401815:	48 29 c2             	sub    %rax,%rdx
  401818:	48 8d 04 92          	lea    (%rdx,%rdx,4),%rax
  40181c:	48 8d 14 80          	lea    (%rax,%rax,4),%rdx
  401820:	48 8d 04 95 00 00 00 	lea    0x0(,%rdx,4),%rax
  401827:	00 
  401828:	48 29 c1             	sub    %rax,%rcx
  40182b:	4c 8d 24 0c          	lea    (%rsp,%rcx,1),%r12
  40182f:	89 ea                	mov    %ebp,%edx
  401831:	48 8d 35 30 18 00 00 	lea    0x1830(%rip),%rsi        # 403068 <_IO_stdin_used+0x2e8>
  401838:	4c 89 e7             	mov    %r12,%rdi
  40183b:	b8 00 00 00 00       	mov    $0x0,%eax
  401840:	e8 5b f5 ff ff       	callq  400da0 <sprintf@plt>
  401845:	ba 09 00 00 00       	mov    $0x9,%edx
  40184a:	4c 89 e6             	mov    %r12,%rsi
  40184d:	48 89 df             	mov    %rbx,%rdi
  401850:	e8 bb f3 ff ff       	callq  400c10 <strncmp@plt>
  401855:	85 c0                	test   %eax,%eax
  401857:	0f 94 c0             	sete   %al
  40185a:	0f b6 c0             	movzbl %al,%eax
  40185d:	48 83 c4 70          	add    $0x70,%rsp
  401861:	5b                   	pop    %rbx
  401862:	5d                   	pop    %rbp
  401863:	41 5c                	pop    %r12
  401865:	c3                   	retq   

0000000000401866 <touch3>:
  401866:	53                   	push   %rbx
  401867:	48 89 fb             	mov    %rdi,%rbx
  40186a:	c7 05 88 3c 20 00 03 	movl   $0x3,0x203c88(%rip)        # 6054fc <vlevel>
  401871:	00 00 00 
  401874:	48 89 fe             	mov    %rdi,%rsi
  401877:	8b 3d 87 3c 20 00    	mov    0x203c87(%rip),%edi        # 605504 <cookie>
  40187d:	e8 63 ff ff ff       	callq  4017e5 <hexmatch>
  401882:	85 c0                	test   %eax,%eax
  401884:	74 28                	je     4018ae <touch3+0x48>
  401886:	48 89 de             	mov    %rbx,%rsi
  401889:	48 8d 3d 30 18 00 00 	lea    0x1830(%rip),%rdi        # 4030c0 <_IO_stdin_used+0x340>
  401890:	b8 00 00 00 00       	mov    $0x0,%eax
  401895:	e8 c6 f3 ff ff       	callq  400c60 <printf@plt>
  40189a:	bf 03 00 00 00       	mov    $0x3,%edi
  40189f:	e8 2b 04 00 00       	callq  401ccf <validate>
  4018a4:	bf 00 00 00 00       	mov    $0x0,%edi
  4018a9:	e8 02 f5 ff ff       	callq  400db0 <exit@plt>
  4018ae:	48 89 de             	mov    %rbx,%rsi
  4018b1:	48 8d 3d 30 18 00 00 	lea    0x1830(%rip),%rdi        # 4030e8 <_IO_stdin_used+0x368>
  4018b8:	b8 00 00 00 00       	mov    $0x0,%eax
  4018bd:	e8 9e f3 ff ff       	callq  400c60 <printf@plt>
  4018c2:	bf 03 00 00 00       	mov    $0x3,%edi
  4018c7:	e8 c1 04 00 00       	callq  401d8d <fail>
  4018cc:	eb d6                	jmp    4018a4 <touch3+0x3e>

00000000004018ce <test>:
  4018ce:	48 83 ec 08          	sub    $0x8,%rsp
  4018d2:	b8 00 00 00 00       	mov    $0x0,%eax
  4018d7:	e8 6b fe ff ff       	callq  401747 <getbuf>
  4018dc:	89 c6                	mov    %eax,%esi
  4018de:	48 8d 3d 2b 18 00 00 	lea    0x182b(%rip),%rdi        # 403110 <_IO_stdin_used+0x390>
  4018e5:	b8 00 00 00 00       	mov    $0x0,%eax
  4018ea:	e8 71 f3 ff ff       	callq  400c60 <printf@plt>
  4018ef:	48 83 c4 08          	add    $0x8,%rsp
  4018f3:	c3                   	retq   

00000000004018f4 <start_farm>:
  4018f4:	b8 01 00 00 00       	mov    $0x1,%eax
  4018f9:	c3                   	retq   

00000000004018fa <getval_222>:
  4018fa:	b8 48 89 c7 c3       	mov    $0xc3c78948,%eax
  4018ff:	c3                   	retq   

0000000000401900 <setval_212>:
  401900:	c7 07 48 89 c7 c3    	movl   $0xc3c78948,(%rdi)
  401906:	c3                   	retq   

0000000000401907 <getval_214>:
  401907:	b8 58 91 90 90       	mov    $0x90909158,%eax
  40190c:	c3                   	retq   

000000000040190d <setval_252>:
  40190d:	c7 07 48 89 c7 91    	movl   $0x91c78948,(%rdi)
  401913:	c3                   	retq   

0000000000401914 <setval_495>:
  401914:	c7 07 40 89 c7 c3    	movl   $0xc3c78940,(%rdi)
  40191a:	c3                   	retq   

000000000040191b <getval_153>:
  40191b:	b8 d8 90 c3 24       	mov    $0x24c390d8,%eax
  401920:	c3                   	retq   

0000000000401921 <addval_157>:
  401921:	8d 87 ed a5 58 90    	lea    -0x6fa75a13(%rdi),%eax
  401927:	c3                   	retq   

0000000000401928 <setval_451>:
  401928:	c7 07 af 9d 58 c3    	movl   $0xc3589daf,(%rdi)
  40192e:	c3                   	retq   

000000000040192f <mid_farm>:
  40192f:	b8 01 00 00 00       	mov    $0x1,%eax
  401934:	c3                   	retq   

0000000000401935 <add_xy>:
  401935:	48 8d 04 37          	lea    (%rdi,%rsi,1),%rax
  401939:	c3                   	retq   

000000000040193a <setval_289>:
  40193a:	c7 07 99 c1 90 90    	movl   $0x9090c199,(%rdi)
  401940:	c3                   	retq   

0000000000401941 <setval_478>:
  401941:	c7 07 89 ca c3 e3    	movl   $0xe3c3ca89,(%rdi)
  401947:	c3                   	retq   

0000000000401948 <addval_483>:
  401948:	8d 87 81 d6 38 d2    	lea    -0x2dc7297f(%rdi),%eax
  40194e:	c3                   	retq   

000000000040194f <addval_178>:
  40194f:	8d 87 89 c1 08 db    	lea    -0x24f73e77(%rdi),%eax
  401955:	c3                   	retq   

0000000000401956 <getval_101>:
  401956:	b8 ba 48 89 e0       	mov    $0xe08948ba,%eax
  40195b:	c3                   	retq   

000000000040195c <addval_216>:
  40195c:	8d 87 89 d6 84 c0    	lea    -0x3f7b2977(%rdi),%eax
  401962:	c3                   	retq   

0000000000401963 <addval_304>:
  401963:	8d 87 a9 c1 08 db    	lea    -0x24f73e57(%rdi),%eax
  401969:	c3                   	retq   

000000000040196a <addval_257>:
  40196a:	8d 87 89 c1 60 db    	lea    -0x249f3e77(%rdi),%eax
  401970:	c3                   	retq   

0000000000401971 <getval_326>:
  401971:	b8 4d be 89 d6       	mov    $0xd689be4d,%eax
  401976:	c3                   	retq   

0000000000401977 <addval_259>:
  401977:	8d 87 88 ca 90 90    	lea    -0x6f6f3578(%rdi),%eax
  40197d:	c3                   	retq   

000000000040197e <setval_413>:
  40197e:	c7 07 88 ca 84 c9    	movl   $0xc984ca88,(%rdi)
  401984:	c3                   	retq   

0000000000401985 <addval_255>:
  401985:	8d 87 48 89 e0 91    	lea    -0x6e1f76b8(%rdi),%eax
  40198b:	c3                   	retq   

000000000040198c <addval_172>:
  40198c:	8d 87 81 c1 38 c9    	lea    -0x36c73e7f(%rdi),%eax
  401992:	c3                   	retq   

0000000000401993 <getval_203>:
  401993:	b8 8d c1 90 c3       	mov    $0xc390c18d,%eax
  401998:	c3                   	retq   

0000000000401999 <setval_448>:
  401999:	c7 07 89 ca 92 90    	movl   $0x9092ca89,(%rdi)
  40199f:	c3                   	retq   

00000000004019a0 <getval_376>:
  4019a0:	b8 e4 c8 89 e0       	mov    $0xe089c8e4,%eax
  4019a5:	c3                   	retq   

00000000004019a6 <addval_309>:
  4019a6:	8d 87 68 89 e0 c3    	lea    -0x3c1f7698(%rdi),%eax
  4019ac:	c3                   	retq   

00000000004019ad <getval_190>:
  4019ad:	b8 89 d6 91 c3       	mov    $0xc391d689,%eax
  4019b2:	c3                   	retq   

00000000004019b3 <setval_455>:
  4019b3:	c7 07 89 d6 18 db    	movl   $0xdb18d689,(%rdi)
  4019b9:	c3                   	retq   

00000000004019ba <getval_486>:
  4019ba:	b8 48 8b e0 90       	mov    $0x90e08b48,%eax
  4019bf:	c3                   	retq   

00000000004019c0 <addval_394>:
  4019c0:	8d 87 09 d6 90 c3    	lea    -0x3c6f29f7(%rdi),%eax
  4019c6:	c3                   	retq   

00000000004019c7 <setval_273>:
  4019c7:	c7 07 2b 48 89 e0    	movl   $0xe089482b,(%rdi)
  4019cd:	c3                   	retq   

00000000004019ce <setval_464>:
  4019ce:	c7 07 89 c1 20 db    	movl   $0xdb20c189,(%rdi)
  4019d4:	c3                   	retq   

00000000004019d5 <addval_350>:
  4019d5:	8d 87 89 ca 94 d2    	lea    -0x2d6b3577(%rdi),%eax
  4019db:	c3                   	retq   

00000000004019dc <setval_351>:
  4019dc:	c7 07 89 ca 38 c0    	movl   $0xc038ca89,(%rdi)
  4019e2:	c3                   	retq   

00000000004019e3 <addval_296>:
  4019e3:	8d 87 58 89 e0 90    	lea    -0x6f1f76a8(%rdi),%eax
  4019e9:	c3                   	retq   

00000000004019ea <getval_392>:
  4019ea:	b8 b6 89 d6 91       	mov    $0x91d689b6,%eax
  4019ef:	c3                   	retq   

00000000004019f0 <getval_125>:
  4019f0:	b8 2d 4c 89 e0       	mov    $0xe0894c2d,%eax
  4019f5:	c3                   	retq   

00000000004019f6 <getval_362>:
  4019f6:	b8 c9 ca 20 d2       	mov    $0xd220cac9,%eax
  4019fb:	c3                   	retq   

00000000004019fc <getval_151>:
  4019fc:	b8 8d ca 20 c9       	mov    $0xc920ca8d,%eax
  401a01:	c3                   	retq   

0000000000401a02 <getval_410>:
  401a02:	b8 89 d6 a4 c0       	mov    $0xc0a4d689,%eax
  401a07:	c3                   	retq   

0000000000401a08 <addval_417>:
  401a08:	8d 87 89 c1 78 d2    	lea    -0x2d873e77(%rdi),%eax
  401a0e:	c3                   	retq   

0000000000401a0f <end_farm>:
  401a0f:	b8 01 00 00 00       	mov    $0x1,%eax
  401a14:	c3                   	retq   

0000000000401a15 <save_char>:
  401a15:	8b 05 09 47 20 00    	mov    0x204709(%rip),%eax        # 606124 <gets_cnt>
  401a1b:	3d ff 03 00 00       	cmp    $0x3ff,%eax
  401a20:	7f 4a                	jg     401a6c <save_char+0x57>
  401a22:	8d 14 40             	lea    (%rax,%rax,2),%edx
  401a25:	89 f9                	mov    %edi,%ecx
  401a27:	c0 e9 04             	shr    $0x4,%cl
  401a2a:	4c 8d 05 ff 19 00 00 	lea    0x19ff(%rip),%r8        # 403430 <trans_char>
  401a31:	83 e1 0f             	and    $0xf,%ecx
  401a34:	45 0f b6 0c 08       	movzbl (%r8,%rcx,1),%r9d
  401a39:	48 8d 0d e0 3a 20 00 	lea    0x203ae0(%rip),%rcx        # 605520 <gets_buf>
  401a40:	48 63 f2             	movslq %edx,%rsi
  401a43:	44 88 0c 31          	mov    %r9b,(%rcx,%rsi,1)
  401a47:	8d 72 01             	lea    0x1(%rdx),%esi
  401a4a:	83 e7 0f             	and    $0xf,%edi
  401a4d:	41 0f b6 3c 38       	movzbl (%r8,%rdi,1),%edi
  401a52:	48 63 f6             	movslq %esi,%rsi
  401a55:	40 88 3c 31          	mov    %dil,(%rcx,%rsi,1)
  401a59:	83 c2 02             	add    $0x2,%edx
  401a5c:	48 63 d2             	movslq %edx,%rdx
  401a5f:	c6 04 11 20          	movb   $0x20,(%rcx,%rdx,1)
  401a63:	83 c0 01             	add    $0x1,%eax
  401a66:	89 05 b8 46 20 00    	mov    %eax,0x2046b8(%rip)        # 606124 <gets_cnt>
  401a6c:	f3 c3                	repz retq 

0000000000401a6e <save_term>:
  401a6e:	8b 05 b0 46 20 00    	mov    0x2046b0(%rip),%eax        # 606124 <gets_cnt>
  401a74:	8d 04 40             	lea    (%rax,%rax,2),%eax
  401a77:	48 98                	cltq   
  401a79:	48 8d 15 a0 3a 20 00 	lea    0x203aa0(%rip),%rdx        # 605520 <gets_buf>
  401a80:	c6 04 02 00          	movb   $0x0,(%rdx,%rax,1)
  401a84:	c3                   	retq   

0000000000401a85 <check_fail>:
  401a85:	48 83 ec 08          	sub    $0x8,%rsp
  401a89:	0f be 35 98 46 20 00 	movsbl 0x204698(%rip),%esi        # 606128 <target_prefix>
  401a90:	48 8d 0d 89 3a 20 00 	lea    0x203a89(%rip),%rcx        # 605520 <gets_buf>
  401a97:	8b 15 5b 3a 20 00    	mov    0x203a5b(%rip),%edx        # 6054f8 <check_level>
  401a9d:	48 8d 3d 8f 16 00 00 	lea    0x168f(%rip),%rdi        # 403133 <_IO_stdin_used+0x3b3>
  401aa4:	b8 00 00 00 00       	mov    $0x0,%eax
  401aa9:	e8 b2 f1 ff ff       	callq  400c60 <printf@plt>
  401aae:	bf 01 00 00 00       	mov    $0x1,%edi
  401ab3:	e8 f8 f2 ff ff       	callq  400db0 <exit@plt>

0000000000401ab8 <Gets>:
  401ab8:	41 54                	push   %r12
  401aba:	55                   	push   %rbp
  401abb:	53                   	push   %rbx
  401abc:	49 89 fc             	mov    %rdi,%r12
  401abf:	c7 05 5b 46 20 00 00 	movl   $0x0,0x20465b(%rip)        # 606124 <gets_cnt>
  401ac6:	00 00 00 
  401ac9:	48 89 fb             	mov    %rdi,%rbx
  401acc:	eb 11                	jmp    401adf <Gets+0x27>
  401ace:	48 8d 6b 01          	lea    0x1(%rbx),%rbp
  401ad2:	88 03                	mov    %al,(%rbx)
  401ad4:	0f b6 f8             	movzbl %al,%edi
  401ad7:	e8 39 ff ff ff       	callq  401a15 <save_char>
  401adc:	48 89 eb             	mov    %rbp,%rbx
  401adf:	48 8b 3d 0a 3a 20 00 	mov    0x203a0a(%rip),%rdi        # 6054f0 <infile>
  401ae6:	e8 35 f2 ff ff       	callq  400d20 <_IO_getc@plt>
  401aeb:	83 f8 ff             	cmp    $0xffffffff,%eax
  401aee:	74 05                	je     401af5 <Gets+0x3d>
  401af0:	83 f8 0a             	cmp    $0xa,%eax
  401af3:	75 d9                	jne    401ace <Gets+0x16>
  401af5:	c6 03 00             	movb   $0x0,(%rbx)
  401af8:	b8 00 00 00 00       	mov    $0x0,%eax
  401afd:	e8 6c ff ff ff       	callq  401a6e <save_term>
  401b02:	4c 89 e0             	mov    %r12,%rax
  401b05:	5b                   	pop    %rbx
  401b06:	5d                   	pop    %rbp
  401b07:	41 5c                	pop    %r12
  401b09:	c3                   	retq   

0000000000401b0a <notify_server>:
  401b0a:	83 3d f7 39 20 00 00 	cmpl   $0x0,0x2039f7(%rip)        # 605508 <is_checker>
  401b11:	0f 85 de 00 00 00    	jne    401bf5 <notify_server+0xeb>
  401b17:	55                   	push   %rbp
  401b18:	53                   	push   %rbx
  401b19:	48 81 ec 08 40 00 00 	sub    $0x4008,%rsp
  401b20:	89 fb                	mov    %edi,%ebx
  401b22:	8b 05 fc 45 20 00    	mov    0x2045fc(%rip),%eax        # 606124 <gets_cnt>
  401b28:	83 c0 64             	add    $0x64,%eax
  401b2b:	3d 00 20 00 00       	cmp    $0x2000,%eax
  401b30:	0f 8f c1 00 00 00    	jg     401bf7 <notify_server+0xed>
  401b36:	44 0f be 0d ea 45 20 	movsbl 0x2045ea(%rip),%r9d        # 606128 <target_prefix>
  401b3d:	00 
  401b3e:	83 3d 43 39 20 00 00 	cmpl   $0x0,0x203943(%rip)        # 605488 <notify>
  401b45:	0f 84 c7 00 00 00    	je     401c12 <notify_server+0x108>
  401b4b:	44 8b 05 ae 39 20 00 	mov    0x2039ae(%rip),%r8d        # 605500 <authkey>
  401b52:	85 db                	test   %ebx,%ebx
  401b54:	0f 84 c3 00 00 00    	je     401c1d <notify_server+0x113>
  401b5a:	48 8d 2d e8 15 00 00 	lea    0x15e8(%rip),%rbp        # 403149 <_IO_stdin_used+0x3c9>
  401b61:	48 8d bc 24 00 20 00 	lea    0x2000(%rsp),%rdi
  401b68:	00 
  401b69:	48 8d 05 b0 39 20 00 	lea    0x2039b0(%rip),%rax        # 605520 <gets_buf>
  401b70:	50                   	push   %rax
  401b71:	56                   	push   %rsi
  401b72:	48 89 e9             	mov    %rbp,%rcx
  401b75:	8b 15 b5 35 20 00    	mov    0x2035b5(%rip),%edx        # 605130 <target_id>
  401b7b:	48 8d 35 d1 15 00 00 	lea    0x15d1(%rip),%rsi        # 403153 <_IO_stdin_used+0x3d3>
  401b82:	b8 00 00 00 00       	mov    $0x0,%eax
  401b87:	e8 14 f2 ff ff       	callq  400da0 <sprintf@plt>
  401b8c:	48 83 c4 10          	add    $0x10,%rsp
  401b90:	83 3d f1 38 20 00 00 	cmpl   $0x0,0x2038f1(%rip)        # 605488 <notify>
  401b97:	0f 84 b8 00 00 00    	je     401c55 <notify_server+0x14b>
  401b9d:	85 db                	test   %ebx,%ebx
  401b9f:	0f 84 a2 00 00 00    	je     401c47 <notify_server+0x13d>
  401ba5:	48 8d 8c 24 00 20 00 	lea    0x2000(%rsp),%rcx
  401bac:	00 
  401bad:	49 89 e1             	mov    %rsp,%r9
  401bb0:	41 b8 00 00 00 00    	mov    $0x0,%r8d
  401bb6:	48 8b 15 8b 35 20 00 	mov    0x20358b(%rip),%rdx        # 605148 <lab>
  401bbd:	48 8b 35 8c 35 20 00 	mov    0x20358c(%rip),%rsi        # 605150 <course>
  401bc4:	48 8b 3d 75 35 20 00 	mov    0x203575(%rip),%rdi        # 605140 <user_id>
  401bcb:	e8 6e 10 00 00       	callq  402c3e <driver_post>
  401bd0:	85 c0                	test   %eax,%eax
  401bd2:	78 55                	js     401c29 <notify_server+0x11f>
  401bd4:	48 8d 3d bd 16 00 00 	lea    0x16bd(%rip),%rdi        # 403298 <_IO_stdin_used+0x518>
  401bdb:	e8 50 f0 ff ff       	callq  400c30 <puts@plt>
  401be0:	48 8d 3d 94 15 00 00 	lea    0x1594(%rip),%rdi        # 40317b <_IO_stdin_used+0x3fb>
  401be7:	e8 44 f0 ff ff       	callq  400c30 <puts@plt>
  401bec:	48 81 c4 08 40 00 00 	add    $0x4008,%rsp
  401bf3:	5b                   	pop    %rbx
  401bf4:	5d                   	pop    %rbp
  401bf5:	f3 c3                	repz retq 
  401bf7:	48 8d 3d 6a 16 00 00 	lea    0x166a(%rip),%rdi        # 403268 <_IO_stdin_used+0x4e8>
  401bfe:	b8 00 00 00 00       	mov    $0x0,%eax
  401c03:	e8 58 f0 ff ff       	callq  400c60 <printf@plt>
  401c08:	bf 01 00 00 00       	mov    $0x1,%edi
  401c0d:	e8 9e f1 ff ff       	callq  400db0 <exit@plt>
  401c12:	41 b8 ff ff ff ff    	mov    $0xffffffff,%r8d
  401c18:	e9 35 ff ff ff       	jmpq   401b52 <notify_server+0x48>
  401c1d:	48 8d 2d 2a 15 00 00 	lea    0x152a(%rip),%rbp        # 40314e <_IO_stdin_used+0x3ce>
  401c24:	e9 38 ff ff ff       	jmpq   401b61 <notify_server+0x57>
  401c29:	48 89 e6             	mov    %rsp,%rsi
  401c2c:	48 8d 3d 3c 15 00 00 	lea    0x153c(%rip),%rdi        # 40316f <_IO_stdin_used+0x3ef>
  401c33:	b8 00 00 00 00       	mov    $0x0,%eax
  401c38:	e8 23 f0 ff ff       	callq  400c60 <printf@plt>
  401c3d:	bf 01 00 00 00       	mov    $0x1,%edi
  401c42:	e8 69 f1 ff ff       	callq  400db0 <exit@plt>
  401c47:	48 8d 3d 37 15 00 00 	lea    0x1537(%rip),%rdi        # 403185 <_IO_stdin_used+0x405>
  401c4e:	e8 dd ef ff ff       	callq  400c30 <puts@plt>
  401c53:	eb 97                	jmp    401bec <notify_server+0xe2>
  401c55:	48 89 ee             	mov    %rbp,%rsi
  401c58:	48 8d 3d 71 16 00 00 	lea    0x1671(%rip),%rdi        # 4032d0 <_IO_stdin_used+0x550>
  401c5f:	b8 00 00 00 00       	mov    $0x0,%eax
  401c64:	e8 f7 ef ff ff       	callq  400c60 <printf@plt>
  401c69:	48 8b 35 d0 34 20 00 	mov    0x2034d0(%rip),%rsi        # 605140 <user_id>
  401c70:	48 8d 3d 15 15 00 00 	lea    0x1515(%rip),%rdi        # 40318c <_IO_stdin_used+0x40c>
  401c77:	b8 00 00 00 00       	mov    $0x0,%eax
  401c7c:	e8 df ef ff ff       	callq  400c60 <printf@plt>
  401c81:	48 8b 35 c8 34 20 00 	mov    0x2034c8(%rip),%rsi        # 605150 <course>
  401c88:	48 8d 3d 0a 15 00 00 	lea    0x150a(%rip),%rdi        # 403199 <_IO_stdin_used+0x419>
  401c8f:	b8 00 00 00 00       	mov    $0x0,%eax
  401c94:	e8 c7 ef ff ff       	callq  400c60 <printf@plt>
  401c99:	48 8b 35 a8 34 20 00 	mov    0x2034a8(%rip),%rsi        # 605148 <lab>
  401ca0:	48 8d 3d fe 14 00 00 	lea    0x14fe(%rip),%rdi        # 4031a5 <_IO_stdin_used+0x425>
  401ca7:	b8 00 00 00 00       	mov    $0x0,%eax
  401cac:	e8 af ef ff ff       	callq  400c60 <printf@plt>
  401cb1:	48 8d b4 24 00 20 00 	lea    0x2000(%rsp),%rsi
  401cb8:	00 
  401cb9:	48 8d 3d ee 14 00 00 	lea    0x14ee(%rip),%rdi        # 4031ae <_IO_stdin_used+0x42e>
  401cc0:	b8 00 00 00 00       	mov    $0x0,%eax
  401cc5:	e8 96 ef ff ff       	callq  400c60 <printf@plt>
  401cca:	e9 1d ff ff ff       	jmpq   401bec <notify_server+0xe2>

0000000000401ccf <validate>:
  401ccf:	53                   	push   %rbx
  401cd0:	89 fb                	mov    %edi,%ebx
  401cd2:	83 3d 2f 38 20 00 00 	cmpl   $0x0,0x20382f(%rip)        # 605508 <is_checker>
  401cd9:	74 68                	je     401d43 <validate+0x74>
  401cdb:	39 3d 1b 38 20 00    	cmp    %edi,0x20381b(%rip)        # 6054fc <vlevel>
  401ce1:	75 2d                	jne    401d10 <validate+0x41>
  401ce3:	8b 35 0f 38 20 00    	mov    0x20380f(%rip),%esi        # 6054f8 <check_level>
  401ce9:	39 f7                	cmp    %esi,%edi
  401ceb:	75 39                	jne    401d26 <validate+0x57>
  401ced:	0f be 35 34 44 20 00 	movsbl 0x204434(%rip),%esi        # 606128 <target_prefix>
  401cf4:	48 8d 0d 25 38 20 00 	lea    0x203825(%rip),%rcx        # 605520 <gets_buf>
  401cfb:	89 fa                	mov    %edi,%edx
  401cfd:	48 8d 3d d4 14 00 00 	lea    0x14d4(%rip),%rdi        # 4031d8 <_IO_stdin_used+0x458>
  401d04:	b8 00 00 00 00       	mov    $0x0,%eax
  401d09:	e8 52 ef ff ff       	callq  400c60 <printf@plt>
  401d0e:	5b                   	pop    %rbx
  401d0f:	c3                   	retq   
  401d10:	48 8d 3d a3 14 00 00 	lea    0x14a3(%rip),%rdi        # 4031ba <_IO_stdin_used+0x43a>
  401d17:	e8 14 ef ff ff       	callq  400c30 <puts@plt>
  401d1c:	b8 00 00 00 00       	mov    $0x0,%eax
  401d21:	e8 5f fd ff ff       	callq  401a85 <check_fail>
  401d26:	89 fa                	mov    %edi,%edx
  401d28:	48 8d 3d c9 15 00 00 	lea    0x15c9(%rip),%rdi        # 4032f8 <_IO_stdin_used+0x578>
  401d2f:	b8 00 00 00 00       	mov    $0x0,%eax
  401d34:	e8 27 ef ff ff       	callq  400c60 <printf@plt>
  401d39:	b8 00 00 00 00       	mov    $0x0,%eax
  401d3e:	e8 42 fd ff ff       	callq  401a85 <check_fail>
  401d43:	3b 3d b3 37 20 00    	cmp    0x2037b3(%rip),%edi        # 6054fc <vlevel>
  401d49:	74 1a                	je     401d65 <validate+0x96>
  401d4b:	48 8d 3d 68 14 00 00 	lea    0x1468(%rip),%rdi        # 4031ba <_IO_stdin_used+0x43a>
  401d52:	e8 d9 ee ff ff       	callq  400c30 <puts@plt>
  401d57:	89 de                	mov    %ebx,%esi
  401d59:	bf 00 00 00 00       	mov    $0x0,%edi
  401d5e:	e8 a7 fd ff ff       	callq  401b0a <notify_server>
  401d63:	eb a9                	jmp    401d0e <validate+0x3f>
  401d65:	0f be 15 bc 43 20 00 	movsbl 0x2043bc(%rip),%edx        # 606128 <target_prefix>
  401d6c:	89 fe                	mov    %edi,%esi
  401d6e:	48 8d 3d ab 15 00 00 	lea    0x15ab(%rip),%rdi        # 403320 <_IO_stdin_used+0x5a0>
  401d75:	b8 00 00 00 00       	mov    $0x0,%eax
  401d7a:	e8 e1 ee ff ff       	callq  400c60 <printf@plt>
  401d7f:	89 de                	mov    %ebx,%esi
  401d81:	bf 01 00 00 00       	mov    $0x1,%edi
  401d86:	e8 7f fd ff ff       	callq  401b0a <notify_server>
  401d8b:	eb 81                	jmp    401d0e <validate+0x3f>

0000000000401d8d <fail>:
  401d8d:	48 83 ec 08          	sub    $0x8,%rsp
  401d91:	83 3d 70 37 20 00 00 	cmpl   $0x0,0x203770(%rip)        # 605508 <is_checker>
  401d98:	75 11                	jne    401dab <fail+0x1e>
  401d9a:	89 fe                	mov    %edi,%esi
  401d9c:	bf 00 00 00 00       	mov    $0x0,%edi
  401da1:	e8 64 fd ff ff       	callq  401b0a <notify_server>
  401da6:	48 83 c4 08          	add    $0x8,%rsp
  401daa:	c3                   	retq   
  401dab:	b8 00 00 00 00       	mov    $0x0,%eax
  401db0:	e8 d0 fc ff ff       	callq  401a85 <check_fail>

0000000000401db5 <bushandler>:
  401db5:	48 83 ec 08          	sub    $0x8,%rsp
  401db9:	83 3d 48 37 20 00 00 	cmpl   $0x0,0x203748(%rip)        # 605508 <is_checker>
  401dc0:	74 16                	je     401dd8 <bushandler+0x23>
  401dc2:	48 8d 3d 24 14 00 00 	lea    0x1424(%rip),%rdi        # 4031ed <_IO_stdin_used+0x46d>
  401dc9:	e8 62 ee ff ff       	callq  400c30 <puts@plt>
  401dce:	b8 00 00 00 00       	mov    $0x0,%eax
  401dd3:	e8 ad fc ff ff       	callq  401a85 <check_fail>
  401dd8:	48 8d 3d 79 15 00 00 	lea    0x1579(%rip),%rdi        # 403358 <_IO_stdin_used+0x5d8>
  401ddf:	e8 4c ee ff ff       	callq  400c30 <puts@plt>
  401de4:	48 8d 3d 0c 14 00 00 	lea    0x140c(%rip),%rdi        # 4031f7 <_IO_stdin_used+0x477>
  401deb:	e8 40 ee ff ff       	callq  400c30 <puts@plt>
  401df0:	be 00 00 00 00       	mov    $0x0,%esi
  401df5:	bf 00 00 00 00       	mov    $0x0,%edi
  401dfa:	e8 0b fd ff ff       	callq  401b0a <notify_server>
  401dff:	bf 01 00 00 00       	mov    $0x1,%edi
  401e04:	e8 a7 ef ff ff       	callq  400db0 <exit@plt>

0000000000401e09 <seghandler>:
  401e09:	48 83 ec 08          	sub    $0x8,%rsp
  401e0d:	83 3d f4 36 20 00 00 	cmpl   $0x0,0x2036f4(%rip)        # 605508 <is_checker>
  401e14:	74 16                	je     401e2c <seghandler+0x23>
  401e16:	48 8d 3d f0 13 00 00 	lea    0x13f0(%rip),%rdi        # 40320d <_IO_stdin_used+0x48d>
  401e1d:	e8 0e ee ff ff       	callq  400c30 <puts@plt>
  401e22:	b8 00 00 00 00       	mov    $0x0,%eax
  401e27:	e8 59 fc ff ff       	callq  401a85 <check_fail>
  401e2c:	48 8d 3d 45 15 00 00 	lea    0x1545(%rip),%rdi        # 403378 <_IO_stdin_used+0x5f8>
  401e33:	e8 f8 ed ff ff       	callq  400c30 <puts@plt>
  401e38:	48 8d 3d b8 13 00 00 	lea    0x13b8(%rip),%rdi        # 4031f7 <_IO_stdin_used+0x477>
  401e3f:	e8 ec ed ff ff       	callq  400c30 <puts@plt>
  401e44:	be 00 00 00 00       	mov    $0x0,%esi
  401e49:	bf 00 00 00 00       	mov    $0x0,%edi
  401e4e:	e8 b7 fc ff ff       	callq  401b0a <notify_server>
  401e53:	bf 01 00 00 00       	mov    $0x1,%edi
  401e58:	e8 53 ef ff ff       	callq  400db0 <exit@plt>

0000000000401e5d <illegalhandler>:
  401e5d:	48 83 ec 08          	sub    $0x8,%rsp
  401e61:	83 3d a0 36 20 00 00 	cmpl   $0x0,0x2036a0(%rip)        # 605508 <is_checker>
  401e68:	74 16                	je     401e80 <illegalhandler+0x23>
  401e6a:	48 8d 3d af 13 00 00 	lea    0x13af(%rip),%rdi        # 403220 <_IO_stdin_used+0x4a0>
  401e71:	e8 ba ed ff ff       	callq  400c30 <puts@plt>
  401e76:	b8 00 00 00 00       	mov    $0x0,%eax
  401e7b:	e8 05 fc ff ff       	callq  401a85 <check_fail>
  401e80:	48 8d 3d 19 15 00 00 	lea    0x1519(%rip),%rdi        # 4033a0 <_IO_stdin_used+0x620>
  401e87:	e8 a4 ed ff ff       	callq  400c30 <puts@plt>
  401e8c:	48 8d 3d 64 13 00 00 	lea    0x1364(%rip),%rdi        # 4031f7 <_IO_stdin_used+0x477>
  401e93:	e8 98 ed ff ff       	callq  400c30 <puts@plt>
  401e98:	be 00 00 00 00       	mov    $0x0,%esi
  401e9d:	bf 00 00 00 00       	mov    $0x0,%edi
  401ea2:	e8 63 fc ff ff       	callq  401b0a <notify_server>
  401ea7:	bf 01 00 00 00       	mov    $0x1,%edi
  401eac:	e8 ff ee ff ff       	callq  400db0 <exit@plt>

0000000000401eb1 <sigalrmhandler>:
  401eb1:	48 83 ec 08          	sub    $0x8,%rsp
  401eb5:	83 3d 4c 36 20 00 00 	cmpl   $0x0,0x20364c(%rip)        # 605508 <is_checker>
  401ebc:	74 16                	je     401ed4 <sigalrmhandler+0x23>
  401ebe:	48 8d 3d 6f 13 00 00 	lea    0x136f(%rip),%rdi        # 403234 <_IO_stdin_used+0x4b4>
  401ec5:	e8 66 ed ff ff       	callq  400c30 <puts@plt>
  401eca:	b8 00 00 00 00       	mov    $0x0,%eax
  401ecf:	e8 b1 fb ff ff       	callq  401a85 <check_fail>
  401ed4:	be 05 00 00 00       	mov    $0x5,%esi
  401ed9:	48 8d 3d f0 14 00 00 	lea    0x14f0(%rip),%rdi        # 4033d0 <_IO_stdin_used+0x650>
  401ee0:	b8 00 00 00 00       	mov    $0x0,%eax
  401ee5:	e8 76 ed ff ff       	callq  400c60 <printf@plt>
  401eea:	be 00 00 00 00       	mov    $0x0,%esi
  401eef:	bf 00 00 00 00       	mov    $0x0,%edi
  401ef4:	e8 11 fc ff ff       	callq  401b0a <notify_server>
  401ef9:	bf 01 00 00 00       	mov    $0x1,%edi
  401efe:	e8 ad ee ff ff       	callq  400db0 <exit@plt>

0000000000401f03 <launch>:
  401f03:	55                   	push   %rbp
  401f04:	48 89 e5             	mov    %rsp,%rbp
  401f07:	48 89 fa             	mov    %rdi,%rdx
  401f0a:	48 8d 47 1e          	lea    0x1e(%rdi),%rax
  401f0e:	48 83 e0 f0          	and    $0xfffffffffffffff0,%rax
  401f12:	48 29 c4             	sub    %rax,%rsp
  401f15:	48 8d 7c 24 0f       	lea    0xf(%rsp),%rdi
  401f1a:	48 83 e7 f0          	and    $0xfffffffffffffff0,%rdi
  401f1e:	be f4 00 00 00       	mov    $0xf4,%esi
  401f23:	e8 48 ed ff ff       	callq  400c70 <memset@plt>
  401f28:	48 8b 05 71 35 20 00 	mov    0x203571(%rip),%rax        # 6054a0 <stdin@@GLIBC_2.2.5>
  401f2f:	48 39 05 ba 35 20 00 	cmp    %rax,0x2035ba(%rip)        # 6054f0 <infile>
  401f36:	74 2b                	je     401f63 <launch+0x60>
  401f38:	c7 05 ba 35 20 00 00 	movl   $0x0,0x2035ba(%rip)        # 6054fc <vlevel>
  401f3f:	00 00 00 
  401f42:	b8 00 00 00 00       	mov    $0x0,%eax
  401f47:	e8 82 f9 ff ff       	callq  4018ce <test>
  401f4c:	83 3d b5 35 20 00 00 	cmpl   $0x0,0x2035b5(%rip)        # 605508 <is_checker>
  401f53:	75 21                	jne    401f76 <launch+0x73>
  401f55:	48 8d 3d f8 12 00 00 	lea    0x12f8(%rip),%rdi        # 403254 <_IO_stdin_used+0x4d4>
  401f5c:	e8 cf ec ff ff       	callq  400c30 <puts@plt>
  401f61:	c9                   	leaveq 
  401f62:	c3                   	retq   
  401f63:	48 8d 3d d2 12 00 00 	lea    0x12d2(%rip),%rdi        # 40323c <_IO_stdin_used+0x4bc>
  401f6a:	b8 00 00 00 00       	mov    $0x0,%eax
  401f6f:	e8 ec ec ff ff       	callq  400c60 <printf@plt>
  401f74:	eb c2                	jmp    401f38 <launch+0x35>
  401f76:	48 8d 3d cc 12 00 00 	lea    0x12cc(%rip),%rdi        # 403249 <_IO_stdin_used+0x4c9>
  401f7d:	e8 ae ec ff ff       	callq  400c30 <puts@plt>
  401f82:	b8 00 00 00 00       	mov    $0x0,%eax
  401f87:	e8 f9 fa ff ff       	callq  401a85 <check_fail>

0000000000401f8c <stable_launch>:
  401f8c:	53                   	push   %rbx
  401f8d:	48 89 3d 54 35 20 00 	mov    %rdi,0x203554(%rip)        # 6054e8 <global_offset>
  401f94:	41 b9 00 00 00 00    	mov    $0x0,%r9d
  401f9a:	41 b8 00 00 00 00    	mov    $0x0,%r8d
  401fa0:	b9 32 01 00 00       	mov    $0x132,%ecx
  401fa5:	ba 07 00 00 00       	mov    $0x7,%edx
  401faa:	be 00 00 10 00       	mov    $0x100000,%esi
  401faf:	bf 00 60 58 55       	mov    $0x55586000,%edi
  401fb4:	e8 97 ec ff ff       	callq  400c50 <mmap@plt>
  401fb9:	48 89 c3             	mov    %rax,%rbx
  401fbc:	48 3d 00 60 58 55    	cmp    $0x55586000,%rax
  401fc2:	75 43                	jne    402007 <stable_launch+0x7b>
  401fc4:	48 8d 90 f8 ff 0f 00 	lea    0xffff8(%rax),%rdx
  401fcb:	48 89 15 5e 41 20 00 	mov    %rdx,0x20415e(%rip)        # 606130 <stack_top>
  401fd2:	48 89 e0             	mov    %rsp,%rax
  401fd5:	48 89 d4             	mov    %rdx,%rsp
  401fd8:	48 89 c2             	mov    %rax,%rdx
  401fdb:	48 89 15 fe 34 20 00 	mov    %rdx,0x2034fe(%rip)        # 6054e0 <global_save_stack>
  401fe2:	48 8b 3d ff 34 20 00 	mov    0x2034ff(%rip),%rdi        # 6054e8 <global_offset>
  401fe9:	e8 15 ff ff ff       	callq  401f03 <launch>
  401fee:	48 8b 05 eb 34 20 00 	mov    0x2034eb(%rip),%rax        # 6054e0 <global_save_stack>
  401ff5:	48 89 c4             	mov    %rax,%rsp
  401ff8:	be 00 00 10 00       	mov    $0x100000,%esi
  401ffd:	48 89 df             	mov    %rbx,%rdi
  402000:	e8 3b ed ff ff       	callq  400d40 <munmap@plt>
  402005:	5b                   	pop    %rbx
  402006:	c3                   	retq   
  402007:	be 00 00 10 00       	mov    $0x100000,%esi
  40200c:	48 89 c7             	mov    %rax,%rdi
  40200f:	e8 2c ed ff ff       	callq  400d40 <munmap@plt>
  402014:	ba 00 60 58 55       	mov    $0x55586000,%edx
  402019:	48 8d 35 e8 13 00 00 	lea    0x13e8(%rip),%rsi        # 403408 <_IO_stdin_used+0x688>
  402020:	48 8b 3d 99 34 20 00 	mov    0x203499(%rip),%rdi        # 6054c0 <stderr@@GLIBC_2.2.5>
  402027:	b8 00 00 00 00       	mov    $0x0,%eax
  40202c:	e8 9f ec ff ff       	callq  400cd0 <fprintf@plt>
  402031:	bf 01 00 00 00       	mov    $0x1,%edi
  402036:	e8 75 ed ff ff       	callq  400db0 <exit@plt>

000000000040203b <rio_readinitb>:
  40203b:	89 37                	mov    %esi,(%rdi)
  40203d:	c7 47 04 00 00 00 00 	movl   $0x0,0x4(%rdi)
  402044:	48 8d 47 10          	lea    0x10(%rdi),%rax
  402048:	48 89 47 08          	mov    %rax,0x8(%rdi)
  40204c:	c3                   	retq   

000000000040204d <sigalrm_handler>:
  40204d:	48 83 ec 08          	sub    $0x8,%rsp
  402051:	ba 00 00 00 00       	mov    $0x0,%edx
  402056:	48 8d 35 e3 13 00 00 	lea    0x13e3(%rip),%rsi        # 403440 <trans_char+0x10>
  40205d:	48 8b 3d 5c 34 20 00 	mov    0x20345c(%rip),%rdi        # 6054c0 <stderr@@GLIBC_2.2.5>
  402064:	b8 00 00 00 00       	mov    $0x0,%eax
  402069:	e8 62 ec ff ff       	callq  400cd0 <fprintf@plt>
  40206e:	bf 01 00 00 00       	mov    $0x1,%edi
  402073:	e8 38 ed ff ff       	callq  400db0 <exit@plt>

0000000000402078 <urlencode>:
  402078:	41 54                	push   %r12
  40207a:	55                   	push   %rbp
  40207b:	53                   	push   %rbx
  40207c:	48 83 ec 10          	sub    $0x10,%rsp
  402080:	48 89 fb             	mov    %rdi,%rbx
  402083:	48 89 f5             	mov    %rsi,%rbp
  402086:	b8 00 00 00 00       	mov    $0x0,%eax
  40208b:	48 c7 c1 ff ff ff ff 	mov    $0xffffffffffffffff,%rcx
  402092:	f2 ae                	repnz scas %es:(%rdi),%al
  402094:	48 f7 d1             	not    %rcx
  402097:	8d 41 ff             	lea    -0x1(%rcx),%eax
  40209a:	eb 0e                	jmp    4020aa <urlencode+0x32>
  40209c:	88 55 00             	mov    %dl,0x0(%rbp)
  40209f:	48 8d 6d 01          	lea    0x1(%rbp),%rbp
  4020a3:	48 83 c3 01          	add    $0x1,%rbx
  4020a7:	44 89 e0             	mov    %r12d,%eax
  4020aa:	44 8d 60 ff          	lea    -0x1(%rax),%r12d
  4020ae:	85 c0                	test   %eax,%eax
  4020b0:	0f 84 95 00 00 00    	je     40214b <urlencode+0xd3>
  4020b6:	0f b6 13             	movzbl (%rbx),%edx
  4020b9:	80 fa 2a             	cmp    $0x2a,%dl
  4020bc:	0f 94 c1             	sete   %cl
  4020bf:	80 fa 2d             	cmp    $0x2d,%dl
  4020c2:	0f 94 c0             	sete   %al
  4020c5:	08 c1                	or     %al,%cl
  4020c7:	75 d3                	jne    40209c <urlencode+0x24>
  4020c9:	80 fa 2e             	cmp    $0x2e,%dl
  4020cc:	74 ce                	je     40209c <urlencode+0x24>
  4020ce:	80 fa 5f             	cmp    $0x5f,%dl
  4020d1:	74 c9                	je     40209c <urlencode+0x24>
  4020d3:	8d 42 d0             	lea    -0x30(%rdx),%eax
  4020d6:	3c 09                	cmp    $0x9,%al
  4020d8:	76 c2                	jbe    40209c <urlencode+0x24>
  4020da:	8d 42 bf             	lea    -0x41(%rdx),%eax
  4020dd:	3c 19                	cmp    $0x19,%al
  4020df:	76 bb                	jbe    40209c <urlencode+0x24>
  4020e1:	8d 42 9f             	lea    -0x61(%rdx),%eax
  4020e4:	3c 19                	cmp    $0x19,%al
  4020e6:	76 b4                	jbe    40209c <urlencode+0x24>
  4020e8:	80 fa 20             	cmp    $0x20,%dl
  4020eb:	74 4c                	je     402139 <urlencode+0xc1>
  4020ed:	8d 42 e0             	lea    -0x20(%rdx),%eax
  4020f0:	3c 5f                	cmp    $0x5f,%al
  4020f2:	0f 96 c1             	setbe  %cl
  4020f5:	80 fa 09             	cmp    $0x9,%dl
  4020f8:	0f 94 c0             	sete   %al
  4020fb:	08 c1                	or     %al,%cl
  4020fd:	74 47                	je     402146 <urlencode+0xce>
  4020ff:	0f b6 d2             	movzbl %dl,%edx
  402102:	48 8d 7c 24 08       	lea    0x8(%rsp),%rdi
  402107:	48 8d 35 ca 13 00 00 	lea    0x13ca(%rip),%rsi        # 4034d8 <trans_char+0xa8>
  40210e:	b8 00 00 00 00       	mov    $0x0,%eax
  402113:	e8 88 ec ff ff       	callq  400da0 <sprintf@plt>
  402118:	0f b6 44 24 08       	movzbl 0x8(%rsp),%eax
  40211d:	88 45 00             	mov    %al,0x0(%rbp)
  402120:	0f b6 44 24 09       	movzbl 0x9(%rsp),%eax
  402125:	88 45 01             	mov    %al,0x1(%rbp)
  402128:	0f b6 44 24 0a       	movzbl 0xa(%rsp),%eax
  40212d:	88 45 02             	mov    %al,0x2(%rbp)
  402130:	48 8d 6d 03          	lea    0x3(%rbp),%rbp
  402134:	e9 6a ff ff ff       	jmpq   4020a3 <urlencode+0x2b>
  402139:	c6 45 00 2b          	movb   $0x2b,0x0(%rbp)
  40213d:	48 8d 6d 01          	lea    0x1(%rbp),%rbp
  402141:	e9 5d ff ff ff       	jmpq   4020a3 <urlencode+0x2b>
  402146:	b8 ff ff ff ff       	mov    $0xffffffff,%eax
  40214b:	48 83 c4 10          	add    $0x10,%rsp
  40214f:	5b                   	pop    %rbx
  402150:	5d                   	pop    %rbp
  402151:	41 5c                	pop    %r12
  402153:	c3                   	retq   

0000000000402154 <rio_writen>:
  402154:	41 55                	push   %r13
  402156:	41 54                	push   %r12
  402158:	55                   	push   %rbp
  402159:	53                   	push   %rbx
  40215a:	48 83 ec 08          	sub    $0x8,%rsp
  40215e:	41 89 fc             	mov    %edi,%r12d
  402161:	49 89 d5             	mov    %rdx,%r13
  402164:	48 89 f5             	mov    %rsi,%rbp
  402167:	48 89 d3             	mov    %rdx,%rbx
  40216a:	eb 06                	jmp    402172 <rio_writen+0x1e>
  40216c:	48 29 c3             	sub    %rax,%rbx
  40216f:	48 01 c5             	add    %rax,%rbp
  402172:	48 85 db             	test   %rbx,%rbx
  402175:	74 24                	je     40219b <rio_writen+0x47>
  402177:	48 89 da             	mov    %rbx,%rdx
  40217a:	48 89 ee             	mov    %rbp,%rsi
  40217d:	44 89 e7             	mov    %r12d,%edi
  402180:	e8 bb ea ff ff       	callq  400c40 <write@plt>
  402185:	48 85 c0             	test   %rax,%rax
  402188:	7f e2                	jg     40216c <rio_writen+0x18>
  40218a:	e8 61 ea ff ff       	callq  400bf0 <__errno_location@plt>
  40218f:	83 38 04             	cmpl   $0x4,(%rax)
  402192:	75 15                	jne    4021a9 <rio_writen+0x55>
  402194:	b8 00 00 00 00       	mov    $0x0,%eax
  402199:	eb d1                	jmp    40216c <rio_writen+0x18>
  40219b:	4c 89 e8             	mov    %r13,%rax
  40219e:	48 83 c4 08          	add    $0x8,%rsp
  4021a2:	5b                   	pop    %rbx
  4021a3:	5d                   	pop    %rbp
  4021a4:	41 5c                	pop    %r12
  4021a6:	41 5d                	pop    %r13
  4021a8:	c3                   	retq   
  4021a9:	48 c7 c0 ff ff ff ff 	mov    $0xffffffffffffffff,%rax
  4021b0:	eb ec                	jmp    40219e <rio_writen+0x4a>

00000000004021b2 <rio_read>:
  4021b2:	41 55                	push   %r13
  4021b4:	41 54                	push   %r12
  4021b6:	55                   	push   %rbp
  4021b7:	53                   	push   %rbx
  4021b8:	48 83 ec 08          	sub    $0x8,%rsp
  4021bc:	48 89 fb             	mov    %rdi,%rbx
  4021bf:	49 89 f5             	mov    %rsi,%r13
  4021c2:	49 89 d4             	mov    %rdx,%r12
  4021c5:	eb 0a                	jmp    4021d1 <rio_read+0x1f>
  4021c7:	e8 24 ea ff ff       	callq  400bf0 <__errno_location@plt>
  4021cc:	83 38 04             	cmpl   $0x4,(%rax)
  4021cf:	75 5c                	jne    40222d <rio_read+0x7b>
  4021d1:	8b 6b 04             	mov    0x4(%rbx),%ebp
  4021d4:	85 ed                	test   %ebp,%ebp
  4021d6:	7f 24                	jg     4021fc <rio_read+0x4a>
  4021d8:	48 8d 6b 10          	lea    0x10(%rbx),%rbp
  4021dc:	ba 00 20 00 00       	mov    $0x2000,%edx
  4021e1:	48 89 ee             	mov    %rbp,%rsi
  4021e4:	8b 3b                	mov    (%rbx),%edi
  4021e6:	e8 b5 ea ff ff       	callq  400ca0 <read@plt>
  4021eb:	89 43 04             	mov    %eax,0x4(%rbx)
  4021ee:	85 c0                	test   %eax,%eax
  4021f0:	78 d5                	js     4021c7 <rio_read+0x15>
  4021f2:	85 c0                	test   %eax,%eax
  4021f4:	74 40                	je     402236 <rio_read+0x84>
  4021f6:	48 89 6b 08          	mov    %rbp,0x8(%rbx)
  4021fa:	eb d5                	jmp    4021d1 <rio_read+0x1f>
  4021fc:	89 e8                	mov    %ebp,%eax
  4021fe:	49 39 c4             	cmp    %rax,%r12
  402201:	77 03                	ja     402206 <rio_read+0x54>
  402203:	44 89 e5             	mov    %r12d,%ebp
  402206:	4c 63 e5             	movslq %ebp,%r12
  402209:	48 8b 73 08          	mov    0x8(%rbx),%rsi
  40220d:	4c 89 e2             	mov    %r12,%rdx
  402210:	4c 89 ef             	mov    %r13,%rdi
  402213:	e8 d8 ea ff ff       	callq  400cf0 <memcpy@plt>
  402218:	4c 01 63 08          	add    %r12,0x8(%rbx)
  40221c:	29 6b 04             	sub    %ebp,0x4(%rbx)
  40221f:	4c 89 e0             	mov    %r12,%rax
  402222:	48 83 c4 08          	add    $0x8,%rsp
  402226:	5b                   	pop    %rbx
  402227:	5d                   	pop    %rbp
  402228:	41 5c                	pop    %r12
  40222a:	41 5d                	pop    %r13
  40222c:	c3                   	retq   
  40222d:	48 c7 c0 ff ff ff ff 	mov    $0xffffffffffffffff,%rax
  402234:	eb ec                	jmp    402222 <rio_read+0x70>
  402236:	b8 00 00 00 00       	mov    $0x0,%eax
  40223b:	eb e5                	jmp    402222 <rio_read+0x70>

000000000040223d <rio_readlineb>:
  40223d:	41 55                	push   %r13
  40223f:	41 54                	push   %r12
  402241:	55                   	push   %rbp
  402242:	53                   	push   %rbx
  402243:	48 83 ec 18          	sub    $0x18,%rsp
  402247:	49 89 fd             	mov    %rdi,%r13
  40224a:	49 89 d4             	mov    %rdx,%r12
  40224d:	48 89 f5             	mov    %rsi,%rbp
  402250:	bb 01 00 00 00       	mov    $0x1,%ebx
  402255:	4c 39 e3             	cmp    %r12,%rbx
  402258:	73 47                	jae    4022a1 <rio_readlineb+0x64>
  40225a:	48 8d 74 24 0f       	lea    0xf(%rsp),%rsi
  40225f:	ba 01 00 00 00       	mov    $0x1,%edx
  402264:	4c 89 ef             	mov    %r13,%rdi
  402267:	e8 46 ff ff ff       	callq  4021b2 <rio_read>
  40226c:	83 f8 01             	cmp    $0x1,%eax
  40226f:	75 1c                	jne    40228d <rio_readlineb+0x50>
  402271:	48 8d 45 01          	lea    0x1(%rbp),%rax
  402275:	0f b6 54 24 0f       	movzbl 0xf(%rsp),%edx
  40227a:	88 55 00             	mov    %dl,0x0(%rbp)
  40227d:	80 7c 24 0f 0a       	cmpb   $0xa,0xf(%rsp)
  402282:	74 1a                	je     40229e <rio_readlineb+0x61>
  402284:	48 83 c3 01          	add    $0x1,%rbx
  402288:	48 89 c5             	mov    %rax,%rbp
  40228b:	eb c8                	jmp    402255 <rio_readlineb+0x18>
  40228d:	85 c0                	test   %eax,%eax
  40228f:	75 22                	jne    4022b3 <rio_readlineb+0x76>
  402291:	48 83 fb 01          	cmp    $0x1,%rbx
  402295:	75 0a                	jne    4022a1 <rio_readlineb+0x64>
  402297:	b8 00 00 00 00       	mov    $0x0,%eax
  40229c:	eb 0a                	jmp    4022a8 <rio_readlineb+0x6b>
  40229e:	48 89 c5             	mov    %rax,%rbp
  4022a1:	c6 45 00 00          	movb   $0x0,0x0(%rbp)
  4022a5:	48 89 d8             	mov    %rbx,%rax
  4022a8:	48 83 c4 18          	add    $0x18,%rsp
  4022ac:	5b                   	pop    %rbx
  4022ad:	5d                   	pop    %rbp
  4022ae:	41 5c                	pop    %r12
  4022b0:	41 5d                	pop    %r13
  4022b2:	c3                   	retq   
  4022b3:	48 c7 c0 ff ff ff ff 	mov    $0xffffffffffffffff,%rax
  4022ba:	eb ec                	jmp    4022a8 <rio_readlineb+0x6b>

00000000004022bc <submitr>:
  4022bc:	41 57                	push   %r15
  4022be:	41 56                	push   %r14
  4022c0:	41 55                	push   %r13
  4022c2:	41 54                	push   %r12
  4022c4:	55                   	push   %rbp
  4022c5:	53                   	push   %rbx
  4022c6:	48 81 ec 58 a0 00 00 	sub    $0xa058,%rsp
  4022cd:	49 89 fd             	mov    %rdi,%r13
  4022d0:	89 74 24 14          	mov    %esi,0x14(%rsp)
  4022d4:	49 89 d7             	mov    %rdx,%r15
  4022d7:	48 89 4c 24 08       	mov    %rcx,0x8(%rsp)
  4022dc:	4c 89 44 24 18       	mov    %r8,0x18(%rsp)
  4022e1:	4d 89 ce             	mov    %r9,%r14
  4022e4:	48 8b 9c 24 90 a0 00 	mov    0xa090(%rsp),%rbx
  4022eb:	00 
  4022ec:	c7 84 24 2c 20 00 00 	movl   $0x0,0x202c(%rsp)
  4022f3:	00 00 00 00 
  4022f7:	ba 00 00 00 00       	mov    $0x0,%edx
  4022fc:	be 01 00 00 00       	mov    $0x1,%esi
  402301:	bf 02 00 00 00       	mov    $0x2,%edi
  402306:	e8 c5 ea ff ff       	callq  400dd0 <socket@plt>
  40230b:	85 c0                	test   %eax,%eax
  40230d:	0f 88 ca 01 00 00    	js     4024dd <submitr+0x221>
  402313:	89 c5                	mov    %eax,%ebp
  402315:	4c 89 ef             	mov    %r13,%rdi
  402318:	e8 a3 e9 ff ff       	callq  400cc0 <gethostbyname@plt>
  40231d:	48 85 c0             	test   %rax,%rax
  402320:	0f 84 05 02 00 00    	je     40252b <submitr+0x26f>
  402326:	4c 8d a4 24 40 a0 00 	lea    0xa040(%rsp),%r12
  40232d:	00 
  40232e:	48 c7 84 24 40 a0 00 	movq   $0x0,0xa040(%rsp)
  402335:	00 00 00 00 00 
  40233a:	48 c7 84 24 48 a0 00 	movq   $0x0,0xa048(%rsp)
  402341:	00 00 00 00 00 
  402346:	66 c7 84 24 40 a0 00 	movw   $0x2,0xa040(%rsp)
  40234d:	00 02 00 
  402350:	48 8b 48 18          	mov    0x18(%rax),%rcx
  402354:	48 63 50 14          	movslq 0x14(%rax),%rdx
  402358:	48 8d b4 24 44 a0 00 	lea    0xa044(%rsp),%rsi
  40235f:	00 
  402360:	48 8b 39             	mov    (%rcx),%rdi
  402363:	e8 e8 e9 ff ff       	callq  400d50 <bcopy@plt>
  402368:	0f b7 44 24 14       	movzwl 0x14(%rsp),%eax
  40236d:	66 c1 c8 08          	ror    $0x8,%ax
  402371:	66 89 84 24 42 a0 00 	mov    %ax,0xa042(%rsp)
  402378:	00 
  402379:	ba 10 00 00 00       	mov    $0x10,%edx
  40237e:	4c 89 e6             	mov    %r12,%rsi
  402381:	89 ef                	mov    %ebp,%edi
  402383:	e8 38 ea ff ff       	callq  400dc0 <connect@plt>
  402388:	85 c0                	test   %eax,%eax
  40238a:	0f 88 02 02 00 00    	js     402592 <submitr+0x2d6>
  402390:	48 c7 c6 ff ff ff ff 	mov    $0xffffffffffffffff,%rsi
  402397:	b8 00 00 00 00       	mov    $0x0,%eax
  40239c:	48 89 f1             	mov    %rsi,%rcx
  40239f:	4c 89 f7             	mov    %r14,%rdi
  4023a2:	f2 ae                	repnz scas %es:(%rdi),%al
  4023a4:	48 f7 d1             	not    %rcx
  4023a7:	48 89 ca             	mov    %rcx,%rdx
  4023aa:	48 89 f1             	mov    %rsi,%rcx
  4023ad:	4c 89 ff             	mov    %r15,%rdi
  4023b0:	f2 ae                	repnz scas %es:(%rdi),%al
  4023b2:	48 f7 d1             	not    %rcx
  4023b5:	49 89 c8             	mov    %rcx,%r8
  4023b8:	48 89 f1             	mov    %rsi,%rcx
  4023bb:	48 8b 7c 24 08       	mov    0x8(%rsp),%rdi
  4023c0:	f2 ae                	repnz scas %es:(%rdi),%al
  4023c2:	48 f7 d1             	not    %rcx
  4023c5:	4d 8d 44 08 fe       	lea    -0x2(%r8,%rcx,1),%r8
  4023ca:	48 89 f1             	mov    %rsi,%rcx
  4023cd:	48 8b 7c 24 18       	mov    0x18(%rsp),%rdi
  4023d2:	f2 ae                	repnz scas %es:(%rdi),%al
  4023d4:	48 89 c8             	mov    %rcx,%rax
  4023d7:	48 f7 d0             	not    %rax
  4023da:	49 8d 4c 00 ff       	lea    -0x1(%r8,%rax,1),%rcx
  4023df:	48 8d 44 52 fd       	lea    -0x3(%rdx,%rdx,2),%rax
  4023e4:	48 8d 84 01 80 00 00 	lea    0x80(%rcx,%rax,1),%rax
  4023eb:	00 
  4023ec:	48 3d 00 20 00 00    	cmp    $0x2000,%rax
  4023f2:	0f 87 f3 01 00 00    	ja     4025eb <submitr+0x32f>
  4023f8:	48 8d b4 24 30 40 00 	lea    0x4030(%rsp),%rsi
  4023ff:	00 
  402400:	b9 00 04 00 00       	mov    $0x400,%ecx
  402405:	b8 00 00 00 00       	mov    $0x0,%eax
  40240a:	48 89 f7             	mov    %rsi,%rdi
  40240d:	f3 48 ab             	rep stos %rax,%es:(%rdi)
  402410:	4c 89 f7             	mov    %r14,%rdi
  402413:	e8 60 fc ff ff       	callq  402078 <urlencode>
  402418:	85 c0                	test   %eax,%eax
  40241a:	0f 88 3d 02 00 00    	js     40265d <submitr+0x3a1>
  402420:	4c 8d a4 24 30 60 00 	lea    0x6030(%rsp),%r12
  402427:	00 
  402428:	4d 89 e9             	mov    %r13,%r9
  40242b:	4c 8d 84 24 30 40 00 	lea    0x4030(%rsp),%r8
  402432:	00 
  402433:	4c 89 f9             	mov    %r15,%rcx
  402436:	48 8b 54 24 08       	mov    0x8(%rsp),%rdx
  40243b:	48 8d 35 26 10 00 00 	lea    0x1026(%rip),%rsi        # 403468 <trans_char+0x38>
  402442:	4c 89 e7             	mov    %r12,%rdi
  402445:	b8 00 00 00 00       	mov    $0x0,%eax
  40244a:	e8 51 e9 ff ff       	callq  400da0 <sprintf@plt>
  40244f:	b8 00 00 00 00       	mov    $0x0,%eax
  402454:	48 c7 c1 ff ff ff ff 	mov    $0xffffffffffffffff,%rcx
  40245b:	4c 89 e7             	mov    %r12,%rdi
  40245e:	f2 ae                	repnz scas %es:(%rdi),%al
  402460:	48 f7 d1             	not    %rcx
  402463:	48 8d 51 ff          	lea    -0x1(%rcx),%rdx
  402467:	4c 89 e6             	mov    %r12,%rsi
  40246a:	89 ef                	mov    %ebp,%edi
  40246c:	e8 e3 fc ff ff       	callq  402154 <rio_writen>
  402471:	48 85 c0             	test   %rax,%rax
  402474:	0f 88 6d 02 00 00    	js     4026e7 <submitr+0x42b>
  40247a:	4c 8d a4 24 30 80 00 	lea    0x8030(%rsp),%r12
  402481:	00 
  402482:	89 ee                	mov    %ebp,%esi
  402484:	4c 89 e7             	mov    %r12,%rdi
  402487:	e8 af fb ff ff       	callq  40203b <rio_readinitb>
  40248c:	48 8d b4 24 30 60 00 	lea    0x6030(%rsp),%rsi
  402493:	00 
  402494:	ba 00 20 00 00       	mov    $0x2000,%edx
  402499:	4c 89 e7             	mov    %r12,%rdi
  40249c:	e8 9c fd ff ff       	callq  40223d <rio_readlineb>
  4024a1:	48 85 c0             	test   %rax,%rax
  4024a4:	0f 8e ab 02 00 00    	jle    402755 <submitr+0x499>
  4024aa:	48 8d 8c 24 2c 20 00 	lea    0x202c(%rsp),%rcx
  4024b1:	00 
  4024b2:	48 8d 94 24 30 20 00 	lea    0x2030(%rsp),%rdx
  4024b9:	00 
  4024ba:	48 8d bc 24 30 60 00 	lea    0x6030(%rsp),%rdi
  4024c1:	00 
  4024c2:	4c 8d 44 24 20       	lea    0x20(%rsp),%r8
  4024c7:	48 8d 35 11 10 00 00 	lea    0x1011(%rip),%rsi        # 4034df <trans_char+0xaf>
  4024ce:	b8 00 00 00 00       	mov    $0x0,%eax
  4024d3:	e8 58 e8 ff ff       	callq  400d30 <__isoc99_sscanf@plt>
  4024d8:	e9 9f 03 00 00       	jmpq   40287c <submitr+0x5c0>
  4024dd:	48 b8 45 72 72 6f 72 	movabs $0x43203a726f727245,%rax
  4024e4:	3a 20 43 
  4024e7:	48 89 03             	mov    %rax,(%rbx)
  4024ea:	48 b8 6c 69 65 6e 74 	movabs $0x6e7520746e65696c,%rax
  4024f1:	20 75 6e 
  4024f4:	48 89 43 08          	mov    %rax,0x8(%rbx)
  4024f8:	48 b8 61 62 6c 65 20 	movabs $0x206f7420656c6261,%rax
  4024ff:	74 6f 20 
  402502:	48 89 43 10          	mov    %rax,0x10(%rbx)
  402506:	48 b8 63 72 65 61 74 	movabs $0x7320657461657263,%rax
  40250d:	65 20 73 
  402510:	48 89 43 18          	mov    %rax,0x18(%rbx)
  402514:	c7 43 20 6f 63 6b 65 	movl   $0x656b636f,0x20(%rbx)
  40251b:	66 c7 43 24 74 00    	movw   $0x74,0x24(%rbx)
  402521:	b8 ff ff ff ff       	mov    $0xffffffff,%eax
  402526:	e9 18 03 00 00       	jmpq   402843 <submitr+0x587>
  40252b:	48 b8 45 72 72 6f 72 	movabs $0x44203a726f727245,%rax
  402532:	3a 20 44 
  402535:	48 89 03             	mov    %rax,(%rbx)
  402538:	48 b8 4e 53 20 69 73 	movabs $0x6e7520736920534e,%rax
  40253f:	20 75 6e 
  402542:	48 89 43 08          	mov    %rax,0x8(%rbx)
  402546:	48 b8 61 62 6c 65 20 	movabs $0x206f7420656c6261,%rax
  40254d:	74 6f 20 
  402550:	48 89 43 10          	mov    %rax,0x10(%rbx)
  402554:	48 b8 72 65 73 6f 6c 	movabs $0x2065766c6f736572,%rax
  40255b:	76 65 20 
  40255e:	48 89 43 18          	mov    %rax,0x18(%rbx)
  402562:	48 b8 73 65 72 76 65 	movabs $0x6120726576726573,%rax
  402569:	72 20 61 
  40256c:	48 89 43 20          	mov    %rax,0x20(%rbx)
  402570:	c7 43 28 64 64 72 65 	movl   $0x65726464,0x28(%rbx)
  402577:	66 c7 43 2c 73 73    	movw   $0x7373,0x2c(%rbx)
  40257d:	c6 43 2e 00          	movb   $0x0,0x2e(%rbx)
  402581:	89 ef                	mov    %ebp,%edi
  402583:	e8 08 e7 ff ff       	callq  400c90 <close@plt>
  402588:	b8 ff ff ff ff       	mov    $0xffffffff,%eax
  40258d:	e9 b1 02 00 00       	jmpq   402843 <submitr+0x587>
  402592:	48 b8 45 72 72 6f 72 	movabs $0x55203a726f727245,%rax
  402599:	3a 20 55 
  40259c:	48 89 03             	mov    %rax,(%rbx)
  40259f:	48 b8 6e 61 62 6c 65 	movabs $0x6f7420656c62616e,%rax
  4025a6:	20 74 6f 
  4025a9:	48 89 43 08          	mov    %rax,0x8(%rbx)
  4025ad:	48 b8 20 63 6f 6e 6e 	movabs $0x7463656e6e6f6320,%rax
  4025b4:	65 63 74 
  4025b7:	48 89 43 10          	mov    %rax,0x10(%rbx)
  4025bb:	48 b8 20 74 6f 20 74 	movabs $0x20656874206f7420,%rax
  4025c2:	68 65 20 
  4025c5:	48 89 43 18          	mov    %rax,0x18(%rbx)
  4025c9:	c7 43 20 73 65 72 76 	movl   $0x76726573,0x20(%rbx)
  4025d0:	66 c7 43 24 65 72    	movw   $0x7265,0x24(%rbx)
  4025d6:	c6 43 26 00          	movb   $0x0,0x26(%rbx)
  4025da:	89 ef                	mov    %ebp,%edi
  4025dc:	e8 af e6 ff ff       	callq  400c90 <close@plt>
  4025e1:	b8 ff ff ff ff       	mov    $0xffffffff,%eax
  4025e6:	e9 58 02 00 00       	jmpq   402843 <submitr+0x587>
  4025eb:	48 b8 45 72 72 6f 72 	movabs $0x52203a726f727245,%rax
  4025f2:	3a 20 52 
  4025f5:	48 89 03             	mov    %rax,(%rbx)
  4025f8:	48 b8 65 73 75 6c 74 	movabs $0x747320746c757365,%rax
  4025ff:	20 73 74 
  402602:	48 89 43 08          	mov    %rax,0x8(%rbx)
  402606:	48 b8 72 69 6e 67 20 	movabs $0x6f6f7420676e6972,%rax
  40260d:	74 6f 6f 
  402610:	48 89 43 10          	mov    %rax,0x10(%rbx)
  402614:	48 b8 20 6c 61 72 67 	movabs $0x202e656772616c20,%rax
  40261b:	65 2e 20 
  40261e:	48 89 43 18          	mov    %rax,0x18(%rbx)
  402622:	48 b8 49 6e 63 72 65 	movabs $0x6573616572636e49,%rax
  402629:	61 73 65 
  40262c:	48 89 43 20          	mov    %rax,0x20(%rbx)
  402630:	48 b8 20 53 55 42 4d 	movabs $0x5254494d42555320,%rax
  402637:	49 54 52 
  40263a:	48 89 43 28          	mov    %rax,0x28(%rbx)
  40263e:	48 b8 5f 4d 41 58 42 	movabs $0x46554258414d5f,%rax
  402645:	55 46 00 
  402648:	48 89 43 30          	mov    %rax,0x30(%rbx)
  40264c:	89 ef                	mov    %ebp,%edi
  40264e:	e8 3d e6 ff ff       	callq  400c90 <close@plt>
  402653:	b8 ff ff ff ff       	mov    $0xffffffff,%eax
  402658:	e9 e6 01 00 00       	jmpq   402843 <submitr+0x587>
  40265d:	48 b8 45 72 72 6f 72 	movabs $0x52203a726f727245,%rax
  402664:	3a 20 52 
  402667:	48 89 03             	mov    %rax,(%rbx)
  40266a:	48 b8 65 73 75 6c 74 	movabs $0x747320746c757365,%rax
  402671:	20 73 74 
  402674:	48 89 43 08          	mov    %rax,0x8(%rbx)
  402678:	48 b8 72 69 6e 67 20 	movabs $0x6e6f6320676e6972,%rax
  40267f:	63 6f 6e 
  402682:	48 89 43 10          	mov    %rax,0x10(%rbx)
  402686:	48 b8 74 61 69 6e 73 	movabs $0x6e6120736e696174,%rax
  40268d:	20 61 6e 
  402690:	48 89 43 18          	mov    %rax,0x18(%rbx)
  402694:	48 b8 20 69 6c 6c 65 	movabs $0x6c6167656c6c6920,%rax
  40269b:	67 61 6c 
  40269e:	48 89 43 20          	mov    %rax,0x20(%rbx)
  4026a2:	48 b8 20 6f 72 20 75 	movabs $0x72706e7520726f20,%rax
  4026a9:	6e 70 72 
  4026ac:	48 89 43 28          	mov    %rax,0x28(%rbx)
  4026b0:	48 b8 69 6e 74 61 62 	movabs $0x20656c6261746e69,%rax
  4026b7:	6c 65 20 
  4026ba:	48 89 43 30          	mov    %rax,0x30(%rbx)
  4026be:	48 b8 63 68 61 72 61 	movabs $0x6574636172616863,%rax
  4026c5:	63 74 65 
  4026c8:	48 89 43 38          	mov    %rax,0x38(%rbx)
  4026cc:	66 c7 43 40 72 2e    	movw   $0x2e72,0x40(%rbx)
  4026d2:	c6 43 42 00          	movb   $0x0,0x42(%rbx)
  4026d6:	89 ef                	mov    %ebp,%edi
  4026d8:	e8 b3 e5 ff ff       	callq  400c90 <close@plt>
  4026dd:	b8 ff ff ff ff       	mov    $0xffffffff,%eax
  4026e2:	e9 5c 01 00 00       	jmpq   402843 <submitr+0x587>
  4026e7:	48 b8 45 72 72 6f 72 	movabs $0x43203a726f727245,%rax
  4026ee:	3a 20 43 
  4026f1:	48 89 03             	mov    %rax,(%rbx)
  4026f4:	48 b8 6c 69 65 6e 74 	movabs $0x6e7520746e65696c,%rax
  4026fb:	20 75 6e 
  4026fe:	48 89 43 08          	mov    %rax,0x8(%rbx)
  402702:	48 b8 61 62 6c 65 20 	movabs $0x206f7420656c6261,%rax
  402709:	74 6f 20 
  40270c:	48 89 43 10          	mov    %rax,0x10(%rbx)
  402710:	48 b8 77 72 69 74 65 	movabs $0x6f74206574697277,%rax
  402717:	20 74 6f 
  40271a:	48 89 43 18          	mov    %rax,0x18(%rbx)
  40271e:	48 b8 20 74 68 65 20 	movabs $0x7365722065687420,%rax
  402725:	72 65 73 
  402728:	48 89 43 20          	mov    %rax,0x20(%rbx)
  40272c:	48 b8 75 6c 74 20 73 	movabs $0x7672657320746c75,%rax
  402733:	65 72 76 
  402736:	48 89 43 28          	mov    %rax,0x28(%rbx)
  40273a:	66 c7 43 30 65 72    	movw   $0x7265,0x30(%rbx)
  402740:	c6 43 32 00          	movb   $0x0,0x32(%rbx)
  402744:	89 ef                	mov    %ebp,%edi
  402746:	e8 45 e5 ff ff       	callq  400c90 <close@plt>
  40274b:	b8 ff ff ff ff       	mov    $0xffffffff,%eax
  402750:	e9 ee 00 00 00       	jmpq   402843 <submitr+0x587>
  402755:	48 b8 45 72 72 6f 72 	movabs $0x43203a726f727245,%rax
  40275c:	3a 20 43 
  40275f:	48 89 03             	mov    %rax,(%rbx)
  402762:	48 b8 6c 69 65 6e 74 	movabs $0x6e7520746e65696c,%rax
  402769:	20 75 6e 
  40276c:	48 89 43 08          	mov    %rax,0x8(%rbx)
  402770:	48 b8 61 62 6c 65 20 	movabs $0x206f7420656c6261,%rax
  402777:	74 6f 20 
  40277a:	48 89 43 10          	mov    %rax,0x10(%rbx)
  40277e:	48 b8 72 65 61 64 20 	movabs $0x7269662064616572,%rax
  402785:	66 69 72 
  402788:	48 89 43 18          	mov    %rax,0x18(%rbx)
  40278c:	48 b8 73 74 20 68 65 	movabs $0x6564616568207473,%rax
  402793:	61 64 65 
  402796:	48 89 43 20          	mov    %rax,0x20(%rbx)
  40279a:	48 b8 72 20 66 72 6f 	movabs $0x72206d6f72662072,%rax
  4027a1:	6d 20 72 
  4027a4:	48 89 43 28          	mov    %rax,0x28(%rbx)
  4027a8:	48 b8 65 73 75 6c 74 	movabs $0x657320746c757365,%rax
  4027af:	20 73 65 
  4027b2:	48 89 43 30          	mov    %rax,0x30(%rbx)
  4027b6:	c7 43 38 72 76 65 72 	movl   $0x72657672,0x38(%rbx)
  4027bd:	c6 43 3c 00          	movb   $0x0,0x3c(%rbx)
  4027c1:	89 ef                	mov    %ebp,%edi
  4027c3:	e8 c8 e4 ff ff       	callq  400c90 <close@plt>
  4027c8:	b8 ff ff ff ff       	mov    $0xffffffff,%eax
  4027cd:	eb 74                	jmp    402843 <submitr+0x587>
  4027cf:	48 b8 45 72 72 6f 72 	movabs $0x43203a726f727245,%rax
  4027d6:	3a 20 43 
  4027d9:	48 89 03             	mov    %rax,(%rbx)
  4027dc:	48 b8 6c 69 65 6e 74 	movabs $0x6e7520746e65696c,%rax
  4027e3:	20 75 6e 
  4027e6:	48 89 43 08          	mov    %rax,0x8(%rbx)
  4027ea:	48 b8 61 62 6c 65 20 	movabs $0x206f7420656c6261,%rax
  4027f1:	74 6f 20 
  4027f4:	48 89 43 10          	mov    %rax,0x10(%rbx)
  4027f8:	48 b8 72 65 61 64 20 	movabs $0x6165682064616572,%rax
  4027ff:	68 65 61 
  402802:	48 89 43 18          	mov    %rax,0x18(%rbx)
  402806:	48 b8 64 65 72 73 20 	movabs $0x6f72662073726564,%rax
  40280d:	66 72 6f 
  402810:	48 89 43 20          	mov    %rax,0x20(%rbx)
  402814:	48 b8 6d 20 74 68 65 	movabs $0x657220656874206d,%rax
  40281b:	20 72 65 
  40281e:	48 89 43 28          	mov    %rax,0x28(%rbx)
  402822:	48 b8 73 75 6c 74 20 	movabs $0x72657320746c7573,%rax
  402829:	73 65 72 
  40282c:	48 89 43 30          	mov    %rax,0x30(%rbx)
  402830:	c7 43 38 76 65 72 00 	movl   $0x726576,0x38(%rbx)
  402837:	89 ef                	mov    %ebp,%edi
  402839:	e8 52 e4 ff ff       	callq  400c90 <close@plt>
  40283e:	b8 ff ff ff ff       	mov    $0xffffffff,%eax
  402843:	48 81 c4 58 a0 00 00 	add    $0xa058,%rsp
  40284a:	5b                   	pop    %rbx
  40284b:	5d                   	pop    %rbp
  40284c:	41 5c                	pop    %r12
  40284e:	41 5d                	pop    %r13
  402850:	41 5e                	pop    %r14
  402852:	41 5f                	pop    %r15
  402854:	c3                   	retq   
  402855:	85 c0                	test   %eax,%eax
  402857:	74 51                	je     4028aa <submitr+0x5ee>
  402859:	48 8d b4 24 30 60 00 	lea    0x6030(%rsp),%rsi
  402860:	00 
  402861:	48 8d bc 24 30 80 00 	lea    0x8030(%rsp),%rdi
  402868:	00 
  402869:	ba 00 20 00 00       	mov    $0x2000,%edx
  40286e:	e8 ca f9 ff ff       	callq  40223d <rio_readlineb>
  402873:	48 85 c0             	test   %rax,%rax
  402876:	0f 8e 53 ff ff ff    	jle    4027cf <submitr+0x513>
  40287c:	0f b6 94 24 30 60 00 	movzbl 0x6030(%rsp),%edx
  402883:	00 
  402884:	b8 0d 00 00 00       	mov    $0xd,%eax
  402889:	29 d0                	sub    %edx,%eax
  40288b:	75 c8                	jne    402855 <submitr+0x599>
  40288d:	0f b6 94 24 31 60 00 	movzbl 0x6031(%rsp),%edx
  402894:	00 
  402895:	b8 0a 00 00 00       	mov    $0xa,%eax
  40289a:	29 d0                	sub    %edx,%eax
  40289c:	75 b7                	jne    402855 <submitr+0x599>
  40289e:	0f b6 84 24 32 60 00 	movzbl 0x6032(%rsp),%eax
  4028a5:	00 
  4028a6:	f7 d8                	neg    %eax
  4028a8:	eb ab                	jmp    402855 <submitr+0x599>
  4028aa:	48 8d b4 24 30 60 00 	lea    0x6030(%rsp),%rsi
  4028b1:	00 
  4028b2:	48 8d bc 24 30 80 00 	lea    0x8030(%rsp),%rdi
  4028b9:	00 
  4028ba:	ba 00 20 00 00       	mov    $0x2000,%edx
  4028bf:	e8 79 f9 ff ff       	callq  40223d <rio_readlineb>
  4028c4:	48 85 c0             	test   %rax,%rax
  4028c7:	7e 67                	jle    402930 <submitr+0x674>
  4028c9:	8b 94 24 2c 20 00 00 	mov    0x202c(%rsp),%edx
  4028d0:	81 fa c8 00 00 00    	cmp    $0xc8,%edx
  4028d6:	0f 85 d7 00 00 00    	jne    4029b3 <submitr+0x6f7>
  4028dc:	48 8d b4 24 30 60 00 	lea    0x6030(%rsp),%rsi
  4028e3:	00 
  4028e4:	48 89 df             	mov    %rbx,%rdi
  4028e7:	e8 34 e3 ff ff       	callq  400c20 <strcpy@plt>
  4028ec:	89 ef                	mov    %ebp,%edi
  4028ee:	e8 9d e3 ff ff       	callq  400c90 <close@plt>
  4028f3:	0f b6 03             	movzbl (%rbx),%eax
  4028f6:	ba 4f 00 00 00       	mov    $0x4f,%edx
  4028fb:	29 c2                	sub    %eax,%edx
  4028fd:	0f 85 da 00 00 00    	jne    4029dd <submitr+0x721>
  402903:	0f b6 4b 01          	movzbl 0x1(%rbx),%ecx
  402907:	b8 4b 00 00 00       	mov    $0x4b,%eax
  40290c:	29 c8                	sub    %ecx,%eax
  40290e:	0f 85 cb 00 00 00    	jne    4029df <submitr+0x723>
  402914:	0f b6 4b 02          	movzbl 0x2(%rbx),%ecx
  402918:	b8 0a 00 00 00       	mov    $0xa,%eax
  40291d:	29 c8                	sub    %ecx,%eax
  40291f:	0f 85 ba 00 00 00    	jne    4029df <submitr+0x723>
  402925:	0f b6 43 03          	movzbl 0x3(%rbx),%eax
  402929:	f7 d8                	neg    %eax
  40292b:	e9 af 00 00 00       	jmpq   4029df <submitr+0x723>
  402930:	48 b8 45 72 72 6f 72 	movabs $0x43203a726f727245,%rax
  402937:	3a 20 43 
  40293a:	48 89 03             	mov    %rax,(%rbx)
  40293d:	48 b8 6c 69 65 6e 74 	movabs $0x6e7520746e65696c,%rax
  402944:	20 75 6e 
  402947:	48 89 43 08          	mov    %rax,0x8(%rbx)
  40294b:	48 b8 61 62 6c 65 20 	movabs $0x206f7420656c6261,%rax
  402952:	74 6f 20 
  402955:	48 89 43 10          	mov    %rax,0x10(%rbx)
  402959:	48 b8 72 65 61 64 20 	movabs $0x6174732064616572,%rax
  402960:	73 74 61 
  402963:	48 89 43 18          	mov    %rax,0x18(%rbx)
  402967:	48 b8 74 75 73 20 6d 	movabs $0x7373656d20737574,%rax
  40296e:	65 73 73 
  402971:	48 89 43 20          	mov    %rax,0x20(%rbx)
  402975:	48 b8 61 67 65 20 66 	movabs $0x6d6f726620656761,%rax
  40297c:	72 6f 6d 
  40297f:	48 89 43 28          	mov    %rax,0x28(%rbx)
  402983:	48 b8 20 72 65 73 75 	movabs $0x20746c7573657220,%rax
  40298a:	6c 74 20 
  40298d:	48 89 43 30          	mov    %rax,0x30(%rbx)
  402991:	c7 43 38 73 65 72 76 	movl   $0x76726573,0x38(%rbx)
  402998:	66 c7 43 3c 65 72    	movw   $0x7265,0x3c(%rbx)
  40299e:	c6 43 3e 00          	movb   $0x0,0x3e(%rbx)
  4029a2:	89 ef                	mov    %ebp,%edi
  4029a4:	e8 e7 e2 ff ff       	callq  400c90 <close@plt>
  4029a9:	b8 ff ff ff ff       	mov    $0xffffffff,%eax
  4029ae:	e9 90 fe ff ff       	jmpq   402843 <submitr+0x587>
  4029b3:	48 8d 4c 24 20       	lea    0x20(%rsp),%rcx
  4029b8:	48 8d 35 e9 0a 00 00 	lea    0xae9(%rip),%rsi        # 4034a8 <trans_char+0x78>
  4029bf:	48 89 df             	mov    %rbx,%rdi
  4029c2:	b8 00 00 00 00       	mov    $0x0,%eax
  4029c7:	e8 d4 e3 ff ff       	callq  400da0 <sprintf@plt>
  4029cc:	89 ef                	mov    %ebp,%edi
  4029ce:	e8 bd e2 ff ff       	callq  400c90 <close@plt>
  4029d3:	b8 ff ff ff ff       	mov    $0xffffffff,%eax
  4029d8:	e9 66 fe ff ff       	jmpq   402843 <submitr+0x587>
  4029dd:	89 d0                	mov    %edx,%eax
  4029df:	f7 d8                	neg    %eax
  4029e1:	0f 84 5c fe ff ff    	je     402843 <submitr+0x587>
  4029e7:	b9 05 00 00 00       	mov    $0x5,%ecx
  4029ec:	48 8d 3d fd 0a 00 00 	lea    0xafd(%rip),%rdi        # 4034f0 <trans_char+0xc0>
  4029f3:	48 89 de             	mov    %rbx,%rsi
  4029f6:	f3 a6                	repz cmpsb %es:(%rdi),%ds:(%rsi)
  4029f8:	0f 97 c0             	seta   %al
  4029fb:	0f 92 c1             	setb   %cl
  4029fe:	29 c8                	sub    %ecx,%eax
  402a00:	0f be c0             	movsbl %al,%eax
  402a03:	85 c0                	test   %eax,%eax
  402a05:	0f 84 38 fe ff ff    	je     402843 <submitr+0x587>
  402a0b:	85 d2                	test   %edx,%edx
  402a0d:	75 13                	jne    402a22 <submitr+0x766>
  402a0f:	0f b6 43 01          	movzbl 0x1(%rbx),%eax
  402a13:	ba 4b 00 00 00       	mov    $0x4b,%edx
  402a18:	29 c2                	sub    %eax,%edx
  402a1a:	75 06                	jne    402a22 <submitr+0x766>
  402a1c:	0f b6 53 02          	movzbl 0x2(%rbx),%edx
  402a20:	f7 da                	neg    %edx
  402a22:	89 d0                	mov    %edx,%eax
  402a24:	f7 d8                	neg    %eax
  402a26:	0f 84 17 fe ff ff    	je     402843 <submitr+0x587>
  402a2c:	b8 ff ff ff ff       	mov    $0xffffffff,%eax
  402a31:	e9 0d fe ff ff       	jmpq   402843 <submitr+0x587>

0000000000402a36 <init_timeout>:
  402a36:	85 ff                	test   %edi,%edi
  402a38:	74 20                	je     402a5a <init_timeout+0x24>
  402a3a:	53                   	push   %rbx
  402a3b:	89 fb                	mov    %edi,%ebx
  402a3d:	85 ff                	test   %edi,%edi
  402a3f:	78 1b                	js     402a5c <init_timeout+0x26>
  402a41:	48 8d 35 05 f6 ff ff 	lea    -0x9fb(%rip),%rsi        # 40204d <sigalrm_handler>
  402a48:	bf 0e 00 00 00       	mov    $0xe,%edi
  402a4d:	e8 5e e2 ff ff       	callq  400cb0 <signal@plt>
  402a52:	89 df                	mov    %ebx,%edi
  402a54:	e8 27 e2 ff ff       	callq  400c80 <alarm@plt>
  402a59:	5b                   	pop    %rbx
  402a5a:	f3 c3                	repz retq 
  402a5c:	bb 00 00 00 00       	mov    $0x0,%ebx
  402a61:	eb de                	jmp    402a41 <init_timeout+0xb>

0000000000402a63 <init_driver>:
  402a63:	41 54                	push   %r12
  402a65:	55                   	push   %rbp
  402a66:	53                   	push   %rbx
  402a67:	48 83 ec 10          	sub    $0x10,%rsp
  402a6b:	48 89 fd             	mov    %rdi,%rbp
  402a6e:	be 01 00 00 00       	mov    $0x1,%esi
  402a73:	bf 0d 00 00 00       	mov    $0xd,%edi
  402a78:	e8 33 e2 ff ff       	callq  400cb0 <signal@plt>
  402a7d:	be 01 00 00 00       	mov    $0x1,%esi
  402a82:	bf 1d 00 00 00       	mov    $0x1d,%edi
  402a87:	e8 24 e2 ff ff       	callq  400cb0 <signal@plt>
  402a8c:	be 01 00 00 00       	mov    $0x1,%esi
  402a91:	bf 1d 00 00 00       	mov    $0x1d,%edi
  402a96:	e8 15 e2 ff ff       	callq  400cb0 <signal@plt>
  402a9b:	ba 00 00 00 00       	mov    $0x0,%edx
  402aa0:	be 01 00 00 00       	mov    $0x1,%esi
  402aa5:	bf 02 00 00 00       	mov    $0x2,%edi
  402aaa:	e8 21 e3 ff ff       	callq  400dd0 <socket@plt>
  402aaf:	85 c0                	test   %eax,%eax
  402ab1:	0f 88 80 00 00 00    	js     402b37 <init_driver+0xd4>
  402ab7:	89 c3                	mov    %eax,%ebx
  402ab9:	48 8d 3d 35 0a 00 00 	lea    0xa35(%rip),%rdi        # 4034f5 <trans_char+0xc5>
  402ac0:	e8 fb e1 ff ff       	callq  400cc0 <gethostbyname@plt>
  402ac5:	48 85 c0             	test   %rax,%rax
  402ac8:	0f 84 b5 00 00 00    	je     402b83 <init_driver+0x120>
  402ace:	48 c7 04 24 00 00 00 	movq   $0x0,(%rsp)
  402ad5:	00 
  402ad6:	48 c7 44 24 08 00 00 	movq   $0x0,0x8(%rsp)
  402add:	00 00 
  402adf:	66 c7 04 24 02 00    	movw   $0x2,(%rsp)
  402ae5:	48 8b 48 18          	mov    0x18(%rax),%rcx
  402ae9:	48 63 50 14          	movslq 0x14(%rax),%rdx
  402aed:	48 8d 74 24 04       	lea    0x4(%rsp),%rsi
  402af2:	48 8b 39             	mov    (%rcx),%rdi
  402af5:	e8 56 e2 ff ff       	callq  400d50 <bcopy@plt>
  402afa:	66 c7 44 24 02 3c a4 	movw   $0xa43c,0x2(%rsp)
  402b01:	ba 10 00 00 00       	mov    $0x10,%edx
  402b06:	48 89 e6             	mov    %rsp,%rsi
  402b09:	89 df                	mov    %ebx,%edi
  402b0b:	e8 b0 e2 ff ff       	callq  400dc0 <connect@plt>
  402b10:	85 c0                	test   %eax,%eax
  402b12:	0f 88 d3 00 00 00    	js     402beb <init_driver+0x188>
  402b18:	89 df                	mov    %ebx,%edi
  402b1a:	e8 71 e1 ff ff       	callq  400c90 <close@plt>
  402b1f:	66 c7 45 00 4f 4b    	movw   $0x4b4f,0x0(%rbp)
  402b25:	c6 45 02 00          	movb   $0x0,0x2(%rbp)
  402b29:	b8 00 00 00 00       	mov    $0x0,%eax
  402b2e:	48 83 c4 10          	add    $0x10,%rsp
  402b32:	5b                   	pop    %rbx
  402b33:	5d                   	pop    %rbp
  402b34:	41 5c                	pop    %r12
  402b36:	c3                   	retq   
  402b37:	48 b8 45 72 72 6f 72 	movabs $0x43203a726f727245,%rax
  402b3e:	3a 20 43 
  402b41:	48 89 45 00          	mov    %rax,0x0(%rbp)
  402b45:	48 b8 6c 69 65 6e 74 	movabs $0x6e7520746e65696c,%rax
  402b4c:	20 75 6e 
  402b4f:	48 89 45 08          	mov    %rax,0x8(%rbp)
  402b53:	48 b8 61 62 6c 65 20 	movabs $0x206f7420656c6261,%rax
  402b5a:	74 6f 20 
  402b5d:	48 89 45 10          	mov    %rax,0x10(%rbp)
  402b61:	48 b8 63 72 65 61 74 	movabs $0x7320657461657263,%rax
  402b68:	65 20 73 
  402b6b:	48 89 45 18          	mov    %rax,0x18(%rbp)
  402b6f:	c7 45 20 6f 63 6b 65 	movl   $0x656b636f,0x20(%rbp)
  402b76:	66 c7 45 24 74 00    	movw   $0x74,0x24(%rbp)
  402b7c:	b8 ff ff ff ff       	mov    $0xffffffff,%eax
  402b81:	eb ab                	jmp    402b2e <init_driver+0xcb>
  402b83:	48 b8 45 72 72 6f 72 	movabs $0x44203a726f727245,%rax
  402b8a:	3a 20 44 
  402b8d:	48 89 45 00          	mov    %rax,0x0(%rbp)
  402b91:	48 b8 4e 53 20 69 73 	movabs $0x6e7520736920534e,%rax
  402b98:	20 75 6e 
  402b9b:	48 89 45 08          	mov    %rax,0x8(%rbp)
  402b9f:	48 b8 61 62 6c 65 20 	movabs $0x206f7420656c6261,%rax
  402ba6:	74 6f 20 
  402ba9:	48 89 45 10          	mov    %rax,0x10(%rbp)
  402bad:	48 b8 72 65 73 6f 6c 	movabs $0x2065766c6f736572,%rax
  402bb4:	76 65 20 
  402bb7:	48 89 45 18          	mov    %rax,0x18(%rbp)
  402bbb:	48 b8 73 65 72 76 65 	movabs $0x6120726576726573,%rax
  402bc2:	72 20 61 
  402bc5:	48 89 45 20          	mov    %rax,0x20(%rbp)
  402bc9:	c7 45 28 64 64 72 65 	movl   $0x65726464,0x28(%rbp)
  402bd0:	66 c7 45 2c 73 73    	movw   $0x7373,0x2c(%rbp)
  402bd6:	c6 45 2e 00          	movb   $0x0,0x2e(%rbp)
  402bda:	89 df                	mov    %ebx,%edi
  402bdc:	e8 af e0 ff ff       	callq  400c90 <close@plt>
  402be1:	b8 ff ff ff ff       	mov    $0xffffffff,%eax
  402be6:	e9 43 ff ff ff       	jmpq   402b2e <init_driver+0xcb>
  402beb:	48 b8 45 72 72 6f 72 	movabs $0x55203a726f727245,%rax
  402bf2:	3a 20 55 
  402bf5:	48 89 45 00          	mov    %rax,0x0(%rbp)
  402bf9:	48 b8 6e 61 62 6c 65 	movabs $0x6f7420656c62616e,%rax
  402c00:	20 74 6f 
  402c03:	48 89 45 08          	mov    %rax,0x8(%rbp)
  402c07:	48 b8 20 63 6f 6e 6e 	movabs $0x7463656e6e6f6320,%rax
  402c0e:	65 63 74 
  402c11:	48 89 45 10          	mov    %rax,0x10(%rbp)
  402c15:	48 b8 20 74 6f 20 73 	movabs $0x76726573206f7420,%rax
  402c1c:	65 72 76 
  402c1f:	48 89 45 18          	mov    %rax,0x18(%rbp)
  402c23:	66 c7 45 20 65 72    	movw   $0x7265,0x20(%rbp)
  402c29:	c6 45 22 00          	movb   $0x0,0x22(%rbp)
  402c2d:	89 df                	mov    %ebx,%edi
  402c2f:	e8 5c e0 ff ff       	callq  400c90 <close@plt>
  402c34:	b8 ff ff ff ff       	mov    $0xffffffff,%eax
  402c39:	e9 f0 fe ff ff       	jmpq   402b2e <init_driver+0xcb>

0000000000402c3e <driver_post>:
  402c3e:	53                   	push   %rbx
  402c3f:	4c 89 cb             	mov    %r9,%rbx
  402c42:	45 85 c0             	test   %r8d,%r8d
  402c45:	75 18                	jne    402c5f <driver_post+0x21>
  402c47:	48 85 ff             	test   %rdi,%rdi
  402c4a:	74 05                	je     402c51 <driver_post+0x13>
  402c4c:	80 3f 00             	cmpb   $0x0,(%rdi)
  402c4f:	75 32                	jne    402c83 <driver_post+0x45>
  402c51:	66 c7 03 4f 4b       	movw   $0x4b4f,(%rbx)
  402c56:	c6 43 02 00          	movb   $0x0,0x2(%rbx)
  402c5a:	44 89 c0             	mov    %r8d,%eax
  402c5d:	5b                   	pop    %rbx
  402c5e:	c3                   	retq   
  402c5f:	48 89 ce             	mov    %rcx,%rsi
  402c62:	48 8d 3d 9a 08 00 00 	lea    0x89a(%rip),%rdi        # 403503 <trans_char+0xd3>
  402c69:	b8 00 00 00 00       	mov    $0x0,%eax
  402c6e:	e8 ed df ff ff       	callq  400c60 <printf@plt>
  402c73:	66 c7 03 4f 4b       	movw   $0x4b4f,(%rbx)
  402c78:	c6 43 02 00          	movb   $0x0,0x2(%rbx)
  402c7c:	b8 00 00 00 00       	mov    $0x0,%eax
  402c81:	eb da                	jmp    402c5d <driver_post+0x1f>
  402c83:	48 83 ec 08          	sub    $0x8,%rsp
  402c87:	41 51                	push   %r9
  402c89:	49 89 c9             	mov    %rcx,%r9
  402c8c:	49 89 d0             	mov    %rdx,%r8
  402c8f:	48 89 f9             	mov    %rdi,%rcx
  402c92:	48 89 f2             	mov    %rsi,%rdx
  402c95:	be a4 3c 00 00       	mov    $0x3ca4,%esi
  402c9a:	48 8d 3d 54 08 00 00 	lea    0x854(%rip),%rdi        # 4034f5 <trans_char+0xc5>
  402ca1:	e8 16 f6 ff ff       	callq  4022bc <submitr>
  402ca6:	48 83 c4 10          	add    $0x10,%rsp
  402caa:	eb b1                	jmp    402c5d <driver_post+0x1f>

0000000000402cac <check>:
  402cac:	89 f8                	mov    %edi,%eax
  402cae:	c1 e8 1c             	shr    $0x1c,%eax
  402cb1:	85 c0                	test   %eax,%eax
  402cb3:	74 1d                	je     402cd2 <check+0x26>
  402cb5:	b9 00 00 00 00       	mov    $0x0,%ecx
  402cba:	83 f9 1f             	cmp    $0x1f,%ecx
  402cbd:	7f 0d                	jg     402ccc <check+0x20>
  402cbf:	89 f8                	mov    %edi,%eax
  402cc1:	d3 e8                	shr    %cl,%eax
  402cc3:	3c 0a                	cmp    $0xa,%al
  402cc5:	74 11                	je     402cd8 <check+0x2c>
  402cc7:	83 c1 08             	add    $0x8,%ecx
  402cca:	eb ee                	jmp    402cba <check+0xe>
  402ccc:	b8 01 00 00 00       	mov    $0x1,%eax
  402cd1:	c3                   	retq   
  402cd2:	b8 00 00 00 00       	mov    $0x0,%eax
  402cd7:	c3                   	retq   
  402cd8:	b8 00 00 00 00       	mov    $0x0,%eax
  402cdd:	c3                   	retq   

0000000000402cde <gencookie>:
  402cde:	53                   	push   %rbx
  402cdf:	83 c7 01             	add    $0x1,%edi
  402ce2:	e8 19 df ff ff       	callq  400c00 <srandom@plt>
  402ce7:	e8 24 e0 ff ff       	callq  400d10 <random@plt>
  402cec:	89 c3                	mov    %eax,%ebx
  402cee:	89 c7                	mov    %eax,%edi
  402cf0:	e8 b7 ff ff ff       	callq  402cac <check>
  402cf5:	85 c0                	test   %eax,%eax
  402cf7:	74 ee                	je     402ce7 <gencookie+0x9>
  402cf9:	89 d8                	mov    %ebx,%eax
  402cfb:	5b                   	pop    %rbx
  402cfc:	c3                   	retq   
  402cfd:	0f 1f 00             	nopl   (%rax)

0000000000402d00 <__libc_csu_init>:
  402d00:	41 57                	push   %r15
  402d02:	41 56                	push   %r14
  402d04:	41 89 ff             	mov    %edi,%r15d
  402d07:	41 55                	push   %r13
  402d09:	41 54                	push   %r12
  402d0b:	4c 8d 25 f6 20 20 00 	lea    0x2020f6(%rip),%r12        # 604e08 <__frame_dummy_init_array_entry>
  402d12:	55                   	push   %rbp
  402d13:	48 8d 2d f6 20 20 00 	lea    0x2020f6(%rip),%rbp        # 604e10 <__init_array_end>
  402d1a:	53                   	push   %rbx
  402d1b:	49 89 f6             	mov    %rsi,%r14
  402d1e:	49 89 d5             	mov    %rdx,%r13
  402d21:	4c 29 e5             	sub    %r12,%rbp
  402d24:	48 83 ec 08          	sub    $0x8,%rsp
  402d28:	48 c1 fd 03          	sar    $0x3,%rbp
  402d2c:	e8 7f de ff ff       	callq  400bb0 <_init>
  402d31:	48 85 ed             	test   %rbp,%rbp
  402d34:	74 20                	je     402d56 <__libc_csu_init+0x56>
  402d36:	31 db                	xor    %ebx,%ebx
  402d38:	0f 1f 84 00 00 00 00 	nopl   0x0(%rax,%rax,1)
  402d3f:	00 
  402d40:	4c 89 ea             	mov    %r13,%rdx
  402d43:	4c 89 f6             	mov    %r14,%rsi
  402d46:	44 89 ff             	mov    %r15d,%edi
  402d49:	41 ff 14 dc          	callq  *(%r12,%rbx,8)
  402d4d:	48 83 c3 01          	add    $0x1,%rbx
  402d51:	48 39 dd             	cmp    %rbx,%rbp
  402d54:	75 ea                	jne    402d40 <__libc_csu_init+0x40>
  402d56:	48 83 c4 08          	add    $0x8,%rsp
  402d5a:	5b                   	pop    %rbx
  402d5b:	5d                   	pop    %rbp
  402d5c:	41 5c                	pop    %r12
  402d5e:	41 5d                	pop    %r13
  402d60:	41 5e                	pop    %r14
  402d62:	41 5f                	pop    %r15
  402d64:	c3                   	retq   
  402d65:	90                   	nop
  402d66:	66 2e 0f 1f 84 00 00 	nopw   %cs:0x0(%rax,%rax,1)
  402d6d:	00 00 00 

0000000000402d70 <__libc_csu_fini>:
  402d70:	f3 c3                	repz retq 

Disassembly of section .fini:

0000000000402d74 <_fini>:
  402d74:	48 83 ec 08          	sub    $0x8,%rsp
  402d78:	48 83 c4 08          	add    $0x8,%rsp
  402d7c:	c3                   	retq   
